
obj/kern/kernel:     file format elf32-i386


Disassembly of section .text:

00100000 <pmmap_init.cold>:
  100000:	80 7c 24 1f 00       	cmpb   $0x0,0x1f(%esp)
  100005:	8b 7c 24 10          	mov    0x10(%esp),%edi
    SLIST_INIT(&pmmap_sublist[PMMAP_NVS]);

    /*
     * Copy memory map information from multiboot information mbi to pmmap.
     */
    while ((uintptr_t) p - (uintptr_t) mbi->mmap_addr < mbi->mmap_length) {
  100009:	74 06                	je     100011 <pmmap_init.cold+0x11>
  10000b:	89 bd 78 76 02 00    	mov    %edi,0x27678(%ebp)
  100011:	80 7c 24 04 00       	cmpb   $0x0,0x4(%esp)
  100016:	74 0a                	je     100022 <pmmap_init.cold+0x22>
  100018:	c7 85 7c 76 02 00 80 	movl   $0x80,0x2767c(%ebp)
  10001f:	00 00 00 
        KERN_PANIC("More than 128 E820 entries.\n");
  100022:	50                   	push   %eax
  100023:	8d 85 a2 83 ff ff    	lea    -0x7c5e(%ebp),%eax
  100029:	89 eb                	mov    %ebp,%ebx
  10002b:	50                   	push   %eax
  10002c:	8d 85 bf 83 ff ff    	lea    -0x7c41(%ebp),%eax
  100032:	6a 3c                	push   $0x3c
  100034:	50                   	push   %eax
  100035:	e8 f6 3f 00 00       	call   104030 <debug_panic>
    free_slot->start = start;
  10003a:	c7 05 00 00 00 00 00 	movl   $0x0,0x0
  100041:	00 00 00 
  100044:	0f 0b                	ud2    
  100046:	66 90                	xchg   %ax,%ax
  100048:	66 90                	xchg   %ax,%ax
  10004a:	66 90                	xchg   %ax,%ax
  10004c:	66 90                	xchg   %ax,%ax
  10004e:	66 90                	xchg   %ax,%ax

00100050 <video_init>:
    unsigned pos;

    /* Get a pointer to the memory-mapped text display buffer. */
    cp = (uint16_t *) CGA_BUF;
    was = *cp;
    *cp = (uint16_t) 0xA55A;
  100050:	b9 5a a5 ff ff       	mov    $0xffffa55a,%ecx
{
  100055:	57                   	push   %edi
  100056:	56                   	push   %esi
  100057:	53                   	push   %ebx
    was = *cp;
  100058:	0f b7 15 00 80 0b 00 	movzwl 0xb8000,%edx
    *cp = (uint16_t) 0xA55A;
  10005f:	e8 25 03 00 00       	call   100389 <__x86.get_pc_thunk.bx>
  100064:	81 c3 9c 0f 01 00    	add    $0x10f9c,%ebx
  10006a:	66 89 0d 00 80 0b 00 	mov    %cx,0xb8000
    if (*cp != 0xA55A) {
  100071:	0f b7 05 00 80 0b 00 	movzwl 0xb8000,%eax
  100078:	66 3d 5a a5          	cmp    $0xa55a,%ax
  10007c:	0f 84 96 00 00 00    	je     100118 <video_init+0xc8>
        cp = (uint16_t *) MONO_BUF;
        addr_6845 = MONO_BASE;
        dprintf("addr_6845:%x\n", addr_6845);
  100082:	83 ec 08             	sub    $0x8,%esp
  100085:	8d 83 00 80 ff ff    	lea    -0x8000(%ebx),%eax
        cp = (uint16_t *) MONO_BUF;
  10008b:	bf 00 00 0b 00       	mov    $0xb0000,%edi
        addr_6845 = MONO_BASE;
  100090:	c7 83 0c 70 02 00 b4 	movl   $0x3b4,0x2700c(%ebx)
  100097:	03 00 00 
        dprintf("addr_6845:%x\n", addr_6845);
  10009a:	68 b4 03 00 00       	push   $0x3b4
  10009f:	50                   	push   %eax
  1000a0:	e8 9b 41 00 00       	call   104240 <dprintf>
  1000a5:	83 c4 10             	add    $0x10,%esp
        addr_6845 = CGA_BASE;
        dprintf("addr_6845:%x\n", addr_6845);
    }

    /* Extract cursor location */
    outb(addr_6845, 14);
  1000a8:	83 ec 08             	sub    $0x8,%esp
  1000ab:	6a 0e                	push   $0xe
  1000ad:	ff b3 0c 70 02 00    	push   0x2700c(%ebx)
  1000b3:	e8 c8 4d 00 00       	call   104e80 <outb>
    pos = inb(addr_6845 + 1) << 8;
  1000b8:	8b 83 0c 70 02 00    	mov    0x2700c(%ebx),%eax
  1000be:	83 c0 01             	add    $0x1,%eax
  1000c1:	89 04 24             	mov    %eax,(%esp)
  1000c4:	e8 87 4d 00 00       	call   104e50 <inb>
  1000c9:	0f b6 f0             	movzbl %al,%esi
    outb(addr_6845, 15);
  1000cc:	58                   	pop    %eax
  1000cd:	5a                   	pop    %edx
  1000ce:	6a 0f                	push   $0xf
  1000d0:	ff b3 0c 70 02 00    	push   0x2700c(%ebx)
    pos = inb(addr_6845 + 1) << 8;
  1000d6:	c1 e6 08             	shl    $0x8,%esi
    outb(addr_6845, 15);
  1000d9:	e8 a2 4d 00 00       	call   104e80 <outb>
    pos |= inb(addr_6845 + 1);
  1000de:	8b 83 0c 70 02 00    	mov    0x2700c(%ebx),%eax
  1000e4:	83 c0 01             	add    $0x1,%eax
  1000e7:	89 04 24             	mov    %eax,(%esp)
  1000ea:	e8 61 4d 00 00       	call   104e50 <inb>
    terminal.crt_buf = (uint16_t *) cp;
    terminal.crt_pos = pos;
    terminal.active_console = 0;

    // spinlock_init(&video_lock);
}
  1000ef:	83 c4 10             	add    $0x10,%esp
    terminal.crt_buf = (uint16_t *) cp;
  1000f2:	89 bb 00 70 02 00    	mov    %edi,0x27000(%ebx)
    terminal.active_console = 0;
  1000f8:	c7 83 08 70 02 00 00 	movl   $0x0,0x27008(%ebx)
  1000ff:	00 00 00 
    pos |= inb(addr_6845 + 1);
  100102:	0f b6 c0             	movzbl %al,%eax
  100105:	09 f0                	or     %esi,%eax
    terminal.crt_pos = pos;
  100107:	66 89 83 04 70 02 00 	mov    %ax,0x27004(%ebx)
}
  10010e:	5b                   	pop    %ebx
  10010f:	5e                   	pop    %esi
  100110:	5f                   	pop    %edi
  100111:	c3                   	ret    
  100112:	8d b6 00 00 00 00    	lea    0x0(%esi),%esi
        dprintf("addr_6845:%x\n", addr_6845);
  100118:	83 ec 08             	sub    $0x8,%esp
  10011b:	8d 83 00 80 ff ff    	lea    -0x8000(%ebx),%eax
    cp = (uint16_t *) CGA_BUF;
  100121:	bf 00 80 0b 00       	mov    $0xb8000,%edi
        *cp = was;
  100126:	66 89 15 00 80 0b 00 	mov    %dx,0xb8000
        dprintf("addr_6845:%x\n", addr_6845);
  10012d:	68 d4 03 00 00       	push   $0x3d4
  100132:	50                   	push   %eax
        addr_6845 = CGA_BASE;
  100133:	c7 83 0c 70 02 00 d4 	movl   $0x3d4,0x2700c(%ebx)
  10013a:	03 00 00 
        dprintf("addr_6845:%x\n", addr_6845);
  10013d:	e8 fe 40 00 00       	call   104240 <dprintf>
  100142:	83 c4 10             	add    $0x10,%esp
  100145:	e9 5e ff ff ff       	jmp    1000a8 <video_init+0x58>
  10014a:	8d b6 00 00 00 00    	lea    0x0(%esi),%esi

00100150 <video_putc>:

void video_putc(int c)
{
  100150:	56                   	push   %esi
  100151:	53                   	push   %ebx
  100152:	e8 32 02 00 00       	call   100389 <__x86.get_pc_thunk.bx>
  100157:	81 c3 a9 0e 01 00    	add    $0x10ea9,%ebx
  10015d:	83 ec 04             	sub    $0x4,%esp
  100160:	8b 54 24 10          	mov    0x10(%esp),%edx
    // if no attribute given, then use black on white
    if (!(c & ~0xFF))
        c |= 0x0700;
  100164:	89 d0                	mov    %edx,%eax
  100166:	80 cc 07             	or     $0x7,%ah
  100169:	f7 c2 00 ff ff ff    	test   $0xffffff00,%edx
  10016f:	0f 44 d0             	cmove  %eax,%edx

    // spinlock_acquire(&video_lock);
    switch (c & 0xff) {
  100172:	0f b6 c2             	movzbl %dl,%eax
  100175:	83 f8 0a             	cmp    $0xa,%eax
  100178:	0f 84 93 01 00 00    	je     100311 <video_putc+0x1c1>
  10017e:	0f 8f bc 00 00 00    	jg     100240 <video_putc+0xf0>
  100184:	83 f8 08             	cmp    $0x8,%eax
  100187:	0f 84 53 01 00 00    	je     1002e0 <video_putc+0x190>
  10018d:	83 f8 09             	cmp    $0x9,%eax
  100190:	0f 85 2a 01 00 00    	jne    1002c0 <video_putc+0x170>
        /* fallthru */
    case '\r':
        terminal.crt_pos -= (terminal.crt_pos % CRT_COLS);
        break;
    case '\t':
        video_putc(' ');
  100196:	83 ec 0c             	sub    $0xc,%esp
  100199:	6a 20                	push   $0x20
  10019b:	e8 b0 ff ff ff       	call   100150 <video_putc>
        video_putc(' ');
  1001a0:	c7 04 24 20 00 00 00 	movl   $0x20,(%esp)
  1001a7:	e8 a4 ff ff ff       	call   100150 <video_putc>
        video_putc(' ');
  1001ac:	c7 04 24 20 00 00 00 	movl   $0x20,(%esp)
  1001b3:	e8 98 ff ff ff       	call   100150 <video_putc>
        video_putc(' ');
  1001b8:	c7 04 24 20 00 00 00 	movl   $0x20,(%esp)
  1001bf:	e8 8c ff ff ff       	call   100150 <video_putc>
        video_putc(' ');
  1001c4:	c7 04 24 20 00 00 00 	movl   $0x20,(%esp)
  1001cb:	e8 80 ff ff ff       	call   100150 <video_putc>
    default:
        terminal.crt_buf[terminal.crt_pos++] = c;  /* write the character */
        break;
    }

    if (terminal.crt_pos >= CRT_SIZE) {
  1001d0:	0f b7 83 04 70 02 00 	movzwl 0x27004(%ebx),%eax
        break;
  1001d7:	83 c4 10             	add    $0x10,%esp
    if (terminal.crt_pos >= CRT_SIZE) {
  1001da:	66 3d cf 07          	cmp    $0x7cf,%ax
  1001de:	0f 87 8b 00 00 00    	ja     10026f <video_putc+0x11f>
            terminal.crt_buf[i] = 0x0700 | ' ';
        terminal.crt_pos -= CRT_COLS;
    }

    /* move that little blinky thing */
    outb(addr_6845, 14);
  1001e4:	83 ec 08             	sub    $0x8,%esp
  1001e7:	6a 0e                	push   $0xe
  1001e9:	ff b3 0c 70 02 00    	push   0x2700c(%ebx)
  1001ef:	e8 8c 4c 00 00       	call   104e80 <outb>
    outb(addr_6845 + 1, terminal.crt_pos >> 8);
  1001f4:	58                   	pop    %eax
  1001f5:	0f b6 83 05 70 02 00 	movzbl 0x27005(%ebx),%eax
  1001fc:	5a                   	pop    %edx
  1001fd:	50                   	push   %eax
  1001fe:	8b 83 0c 70 02 00    	mov    0x2700c(%ebx),%eax
  100204:	83 c0 01             	add    $0x1,%eax
  100207:	50                   	push   %eax
  100208:	e8 73 4c 00 00       	call   104e80 <outb>
    outb(addr_6845, 15);
  10020d:	59                   	pop    %ecx
  10020e:	5e                   	pop    %esi
  10020f:	6a 0f                	push   $0xf
  100211:	ff b3 0c 70 02 00    	push   0x2700c(%ebx)
  100217:	e8 64 4c 00 00       	call   104e80 <outb>
    outb(addr_6845 + 1, terminal.crt_pos);
  10021c:	58                   	pop    %eax
  10021d:	0f b6 83 04 70 02 00 	movzbl 0x27004(%ebx),%eax
  100224:	5a                   	pop    %edx
  100225:	50                   	push   %eax
  100226:	8b 83 0c 70 02 00    	mov    0x2700c(%ebx),%eax
  10022c:	83 c0 01             	add    $0x1,%eax
  10022f:	50                   	push   %eax
  100230:	e8 4b 4c 00 00       	call   104e80 <outb>

    // spinlock_release(&video_lock);
}
  100235:	83 c4 14             	add    $0x14,%esp
  100238:	5b                   	pop    %ebx
  100239:	5e                   	pop    %esi
  10023a:	c3                   	ret    
  10023b:	8d 74 26 00          	lea    0x0(%esi,%eiz,1),%esi
  10023f:	90                   	nop
    switch (c & 0xff) {
  100240:	83 f8 0d             	cmp    $0xd,%eax
  100243:	75 7b                	jne    1002c0 <video_putc+0x170>
        if (terminal.crt_pos > 0) {
  100245:	0f b7 83 04 70 02 00 	movzwl 0x27004(%ebx),%eax
        terminal.crt_pos -= (terminal.crt_pos % CRT_COLS);
  10024c:	0f b7 c0             	movzwl %ax,%eax
  10024f:	69 c0 cd cc 00 00    	imul   $0xcccd,%eax,%eax
  100255:	c1 e8 16             	shr    $0x16,%eax
  100258:	8d 04 80             	lea    (%eax,%eax,4),%eax
  10025b:	c1 e0 04             	shl    $0x4,%eax
  10025e:	66 89 83 04 70 02 00 	mov    %ax,0x27004(%ebx)
    if (terminal.crt_pos >= CRT_SIZE) {
  100265:	66 3d cf 07          	cmp    $0x7cf,%ax
  100269:	0f 86 75 ff ff ff    	jbe    1001e4 <video_putc+0x94>
        memmove(terminal.crt_buf, terminal.crt_buf + CRT_COLS,
  10026f:	8b 83 00 70 02 00    	mov    0x27000(%ebx),%eax
  100275:	83 ec 04             	sub    $0x4,%esp
  100278:	68 00 0f 00 00       	push   $0xf00
  10027d:	8d 90 a0 00 00 00    	lea    0xa0(%eax),%edx
  100283:	52                   	push   %edx
  100284:	50                   	push   %eax
  100285:	e8 16 3b 00 00       	call   103da0 <memmove>
            terminal.crt_buf[i] = 0x0700 | ' ';
  10028a:	8b 93 00 70 02 00    	mov    0x27000(%ebx),%edx
  100290:	83 c4 10             	add    $0x10,%esp
  100293:	8d 82 00 0f 00 00    	lea    0xf00(%edx),%eax
  100299:	81 c2 a0 0f 00 00    	add    $0xfa0,%edx
  10029f:	90                   	nop
  1002a0:	b9 20 07 00 00       	mov    $0x720,%ecx
        for (i = CRT_SIZE - CRT_COLS; i < CRT_SIZE; i++)
  1002a5:	83 c0 02             	add    $0x2,%eax
            terminal.crt_buf[i] = 0x0700 | ' ';
  1002a8:	66 89 48 fe          	mov    %cx,-0x2(%eax)
        for (i = CRT_SIZE - CRT_COLS; i < CRT_SIZE; i++)
  1002ac:	39 c2                	cmp    %eax,%edx
  1002ae:	75 f0                	jne    1002a0 <video_putc+0x150>
        terminal.crt_pos -= CRT_COLS;
  1002b0:	66 83 ab 04 70 02 00 	subw   $0x50,0x27004(%ebx)
  1002b7:	50 
  1002b8:	e9 27 ff ff ff       	jmp    1001e4 <video_putc+0x94>
  1002bd:	8d 76 00             	lea    0x0(%esi),%esi
        terminal.crt_buf[terminal.crt_pos++] = c;  /* write the character */
  1002c0:	0f b7 8b 04 70 02 00 	movzwl 0x27004(%ebx),%ecx
  1002c7:	8b b3 00 70 02 00    	mov    0x27000(%ebx),%esi
  1002cd:	8d 41 01             	lea    0x1(%ecx),%eax
  1002d0:	66 89 14 4e          	mov    %dx,(%esi,%ecx,2)
  1002d4:	66 89 83 04 70 02 00 	mov    %ax,0x27004(%ebx)
        break;
  1002db:	e9 fa fe ff ff       	jmp    1001da <video_putc+0x8a>
        if (terminal.crt_pos > 0) {
  1002e0:	0f b7 83 04 70 02 00 	movzwl 0x27004(%ebx),%eax
  1002e7:	66 85 c0             	test   %ax,%ax
  1002ea:	0f 84 f4 fe ff ff    	je     1001e4 <video_putc+0x94>
            terminal.crt_pos--;
  1002f0:	83 e8 01             	sub    $0x1,%eax
            terminal.crt_buf[terminal.crt_pos] = (c & ~0xff) | ' ';
  1002f3:	8b 8b 00 70 02 00    	mov    0x27000(%ebx),%ecx
  1002f9:	30 d2                	xor    %dl,%dl
  1002fb:	0f b7 f0             	movzwl %ax,%esi
  1002fe:	83 ca 20             	or     $0x20,%edx
            terminal.crt_pos--;
  100301:	66 89 83 04 70 02 00 	mov    %ax,0x27004(%ebx)
            terminal.crt_buf[terminal.crt_pos] = (c & ~0xff) | ' ';
  100308:	66 89 14 71          	mov    %dx,(%ecx,%esi,2)
  10030c:	e9 c9 fe ff ff       	jmp    1001da <video_putc+0x8a>
        terminal.crt_pos += CRT_COLS;
  100311:	0f b7 83 04 70 02 00 	movzwl 0x27004(%ebx),%eax
  100318:	83 c0 50             	add    $0x50,%eax
  10031b:	e9 2c ff ff ff       	jmp    10024c <video_putc+0xfc>

00100320 <video_set_cursor>:

void video_set_cursor(int x, int y)
{
    // spinlock_acquire(&video_lock);
    terminal.crt_pos = x * CRT_COLS + y;
  100320:	e8 60 00 00 00       	call   100385 <__x86.get_pc_thunk.dx>
  100325:	81 c2 db 0c 01 00    	add    $0x10cdb,%edx
{
  10032b:	8b 44 24 04          	mov    0x4(%esp),%eax
    terminal.crt_pos = x * CRT_COLS + y;
  10032f:	8d 04 80             	lea    (%eax,%eax,4),%eax
  100332:	c1 e0 04             	shl    $0x4,%eax
  100335:	66 03 44 24 08       	add    0x8(%esp),%ax
  10033a:	66 89 82 04 70 02 00 	mov    %ax,0x27004(%edx)
    // spinlock_release(&video_lock);
}
  100341:	c3                   	ret    
  100342:	8d b4 26 00 00 00 00 	lea    0x0(%esi,%eiz,1),%esi
  100349:	8d b4 26 00 00 00 00 	lea    0x0(%esi,%eiz,1),%esi

00100350 <video_clear_screen>:

void video_clear_screen()
{
    int i;
    // spinlock_acquire(&video_lock);
    for (i = 0; i < CRT_SIZE; i++) {
  100350:	e8 2c 00 00 00       	call   100381 <__x86.get_pc_thunk.ax>
  100355:	05 ab 0c 01 00       	add    $0x10cab,%eax
  10035a:	8b 80 00 70 02 00    	mov    0x27000(%eax),%eax
  100360:	8d 90 a0 0f 00 00    	lea    0xfa0(%eax),%edx
  100366:	8d b4 26 00 00 00 00 	lea    0x0(%esi,%eiz,1),%esi
  10036d:	8d 76 00             	lea    0x0(%esi),%esi
        terminal.crt_buf[i] = ' ';
  100370:	b9 20 00 00 00       	mov    $0x20,%ecx
    for (i = 0; i < CRT_SIZE; i++) {
  100375:	83 c0 02             	add    $0x2,%eax
        terminal.crt_buf[i] = ' ';
  100378:	66 89 48 fe          	mov    %cx,-0x2(%eax)
    for (i = 0; i < CRT_SIZE; i++) {
  10037c:	39 d0                	cmp    %edx,%eax
  10037e:	75 f0                	jne    100370 <video_clear_screen+0x20>
    }
    // spinlock_release(&video_lock);
}
  100380:	c3                   	ret    

00100381 <__x86.get_pc_thunk.ax>:
  100381:	8b 04 24             	mov    (%esp),%eax
  100384:	c3                   	ret    

00100385 <__x86.get_pc_thunk.dx>:
  100385:	8b 14 24             	mov    (%esp),%edx
  100388:	c3                   	ret    

00100389 <__x86.get_pc_thunk.bx>:
  100389:	8b 1c 24             	mov    (%esp),%ebx
  10038c:	c3                   	ret    
  10038d:	66 90                	xchg   %ax,%ax
  10038f:	90                   	nop

00100390 <cons_init>:
    char buf[CONSOLE_BUFFER_SIZE];
    uint32_t rpos, wpos;
} cons;

void cons_init()
{
  100390:	53                   	push   %ebx
  100391:	e8 f3 ff ff ff       	call   100389 <__x86.get_pc_thunk.bx>
  100396:	81 c3 6a 0c 01 00    	add    $0x10c6a,%ebx
  10039c:	83 ec 0c             	sub    $0xc,%esp
    memset(&cons, 0x0, sizeof(cons));
  10039f:	68 08 02 00 00       	push   $0x208
  1003a4:	6a 00                	push   $0x0
  1003a6:	8d 83 20 70 02 00    	lea    0x27020(%ebx),%eax
  1003ac:	50                   	push   %eax
  1003ad:	e8 9e 39 00 00       	call   103d50 <memset>
    serial_init();
  1003b2:	e8 59 04 00 00       	call   100810 <serial_init>
    video_init();
  1003b7:	e8 94 fc ff ff       	call   100050 <video_init>
    spinlock_init(&console_lock);
  1003bc:	8d 83 28 72 02 00    	lea    0x27228(%ebx),%eax
  1003c2:	89 04 24             	mov    %eax,(%esp)
  1003c5:	e8 26 53 00 00       	call   1056f0 <spinlock_init>
}
  1003ca:	83 c4 18             	add    $0x18,%esp
  1003cd:	5b                   	pop    %ebx
  1003ce:	c3                   	ret    
  1003cf:	90                   	nop

001003d0 <cons_intr>:

void cons_intr(int (*proc)(void))
{
  1003d0:	55                   	push   %ebp
  1003d1:	57                   	push   %edi
  1003d2:	56                   	push   %esi
    spinlock_acquire(&console_lock);

    while ((c = (*proc)()) != -1) {
        if (c == 0)
            continue;
        cons.buf[cons.wpos++] = c;
  1003d3:	8d 35 20 70 02 00    	lea    0x27020,%esi
{
  1003d9:	53                   	push   %ebx
  1003da:	e8 aa ff ff ff       	call   100389 <__x86.get_pc_thunk.bx>
  1003df:	81 c3 21 0c 01 00    	add    $0x10c21,%ebx
  1003e5:	83 ec 28             	sub    $0x28,%esp
  1003e8:	8b 7c 24 3c          	mov    0x3c(%esp),%edi
    spinlock_acquire(&console_lock);
  1003ec:	8d 83 28 72 02 00    	lea    0x27228(%ebx),%eax
        cons.buf[cons.wpos++] = c;
  1003f2:	8d 2c 33             	lea    (%ebx,%esi,1),%ebp
    spinlock_acquire(&console_lock);
  1003f5:	89 44 24 18          	mov    %eax,0x18(%esp)
  1003f9:	50                   	push   %eax
  1003fa:	e8 81 53 00 00       	call   105780 <spinlock_acquire>
    while ((c = (*proc)()) != -1) {
  1003ff:	83 c4 10             	add    $0x10,%esp
  100402:	8d b6 00 00 00 00    	lea    0x0(%esi),%esi
  100408:	ff d7                	call   *%edi
  10040a:	83 f8 ff             	cmp    $0xffffffff,%eax
  10040d:	74 33                	je     100442 <cons_intr+0x72>
        if (c == 0)
  10040f:	85 c0                	test   %eax,%eax
  100411:	74 f5                	je     100408 <cons_intr+0x38>
        cons.buf[cons.wpos++] = c;
  100413:	8b 8c 33 04 02 00 00 	mov    0x204(%ebx,%esi,1),%ecx
  10041a:	8d 51 01             	lea    0x1(%ecx),%edx
  10041d:	88 44 0d 00          	mov    %al,0x0(%ebp,%ecx,1)
  100421:	89 94 33 04 02 00 00 	mov    %edx,0x204(%ebx,%esi,1)
        if (cons.wpos == CONSOLE_BUFFER_SIZE)
  100428:	81 fa 00 02 00 00    	cmp    $0x200,%edx
  10042e:	75 d8                	jne    100408 <cons_intr+0x38>
            cons.wpos = 0;
  100430:	c7 84 1e 04 02 00 00 	movl   $0x0,0x204(%esi,%ebx,1)
  100437:	00 00 00 00 
    while ((c = (*proc)()) != -1) {
  10043b:	ff d7                	call   *%edi
  10043d:	83 f8 ff             	cmp    $0xffffffff,%eax
  100440:	75 cd                	jne    10040f <cons_intr+0x3f>
    }

    spinlock_release(&console_lock);
  100442:	83 ec 0c             	sub    $0xc,%esp
  100445:	ff 74 24 18          	push   0x18(%esp)
  100449:	e8 b2 53 00 00       	call   105800 <spinlock_release>
}
  10044e:	83 c4 2c             	add    $0x2c,%esp
  100451:	5b                   	pop    %ebx
  100452:	5e                   	pop    %esi
  100453:	5f                   	pop    %edi
  100454:	5d                   	pop    %ebp
  100455:	c3                   	ret    
  100456:	8d b4 26 00 00 00 00 	lea    0x0(%esi,%eiz,1),%esi
  10045d:	8d 76 00             	lea    0x0(%esi),%esi

00100460 <cons_getc>:

char cons_getc(void)
{
  100460:	57                   	push   %edi
  100461:	56                   	push   %esi
  100462:	53                   	push   %ebx
  100463:	e8 21 ff ff ff       	call   100389 <__x86.get_pc_thunk.bx>
  100468:	81 c3 98 0b 01 00    	add    $0x10b98,%ebx
    int c;

    // poll for any pending input characters,
    // so that this function works even when interrupts are disabled
    // (e.g., when called from the kernel monitor).
    serial_intr();
  10046e:	e8 5d 02 00 00       	call   1006d0 <serial_intr>
    keyboard_intr();

    spinlock_acquire(&console_lock);
  100473:	8d b3 28 72 02 00    	lea    0x27228(%ebx),%esi
    keyboard_intr();
  100479:	e8 12 06 00 00       	call   100a90 <keyboard_intr>
    spinlock_acquire(&console_lock);
  10047e:	83 ec 0c             	sub    $0xc,%esp
  100481:	56                   	push   %esi
  100482:	e8 f9 52 00 00       	call   105780 <spinlock_acquire>
    // grab the next character from the input buffer.
    if (cons.rpos != cons.wpos) {
  100487:	8b 83 20 72 02 00    	mov    0x27220(%ebx),%eax
  10048d:	83 c4 10             	add    $0x10,%esp
  100490:	3b 83 24 72 02 00    	cmp    0x27224(%ebx),%eax
  100496:	74 38                	je     1004d0 <cons_getc+0x70>
        c = cons.buf[cons.rpos++];
  100498:	0f b6 bc 03 20 70 02 	movzbl 0x27020(%ebx,%eax,1),%edi
  10049f:	00 
        if (cons.rpos == CONSOLE_BUFFER_SIZE)
            cons.rpos = 0;
  1004a0:	3d ff 01 00 00       	cmp    $0x1ff,%eax
        c = cons.buf[cons.rpos++];
  1004a5:	8d 50 01             	lea    0x1(%eax),%edx
            cons.rpos = 0;
  1004a8:	b8 00 00 00 00       	mov    $0x0,%eax
  1004ad:	0f 44 d0             	cmove  %eax,%edx
        spinlock_release(&console_lock);
  1004b0:	83 ec 0c             	sub    $0xc,%esp
  1004b3:	56                   	push   %esi
  1004b4:	89 93 20 72 02 00    	mov    %edx,0x27220(%ebx)
  1004ba:	e8 41 53 00 00       	call   105800 <spinlock_release>
        return c;
  1004bf:	83 c4 10             	add    $0x10,%esp
    }

    spinlock_release(&console_lock);
    return 0;
}
  1004c2:	89 f8                	mov    %edi,%eax
  1004c4:	5b                   	pop    %ebx
  1004c5:	5e                   	pop    %esi
  1004c6:	5f                   	pop    %edi
  1004c7:	c3                   	ret    
  1004c8:	8d b4 26 00 00 00 00 	lea    0x0(%esi,%eiz,1),%esi
  1004cf:	90                   	nop
    spinlock_release(&console_lock);
  1004d0:	83 ec 0c             	sub    $0xc,%esp
    return 0;
  1004d3:	31 ff                	xor    %edi,%edi
    spinlock_release(&console_lock);
  1004d5:	56                   	push   %esi
  1004d6:	e8 25 53 00 00       	call   105800 <spinlock_release>
    return 0;
  1004db:	83 c4 10             	add    $0x10,%esp
}
  1004de:	89 f8                	mov    %edi,%eax
  1004e0:	5b                   	pop    %ebx
  1004e1:	5e                   	pop    %esi
  1004e2:	5f                   	pop    %edi
  1004e3:	c3                   	ret    
  1004e4:	8d b4 26 00 00 00 00 	lea    0x0(%esi,%eiz,1),%esi
  1004eb:	8d 74 26 00          	lea    0x0(%esi,%eiz,1),%esi
  1004ef:	90                   	nop

001004f0 <cons_putc>:

void cons_putc(char c)
{
  1004f0:	56                   	push   %esi
  1004f1:	53                   	push   %ebx
  1004f2:	e8 92 fe ff ff       	call   100389 <__x86.get_pc_thunk.bx>
  1004f7:	81 c3 09 0b 01 00    	add    $0x10b09,%ebx
  1004fd:	83 ec 10             	sub    $0x10,%esp
    serial_putc(c);
  100500:	0f be 74 24 1c       	movsbl 0x1c(%esp),%esi
  100505:	56                   	push   %esi
  100506:	e8 05 02 00 00       	call   100710 <serial_putc>
    video_putc(c);
  10050b:	89 34 24             	mov    %esi,(%esp)
  10050e:	e8 3d fc ff ff       	call   100150 <video_putc>
}
  100513:	83 c4 14             	add    $0x14,%esp
  100516:	5b                   	pop    %ebx
  100517:	5e                   	pop    %esi
  100518:	c3                   	ret    
  100519:	8d b4 26 00 00 00 00 	lea    0x0(%esi,%eiz,1),%esi

00100520 <getchar>:

char getchar(void)
{
  100520:	83 ec 0c             	sub    $0xc,%esp
    char c;

    while ((c = cons_getc()) == 0)
  100523:	8d 74 26 00          	lea    0x0(%esi,%eiz,1),%esi
  100527:	90                   	nop
  100528:	e8 33 ff ff ff       	call   100460 <cons_getc>
  10052d:	84 c0                	test   %al,%al
  10052f:	74 f7                	je     100528 <getchar+0x8>
        /* do nothing */ ;
    return c;
}
  100531:	83 c4 0c             	add    $0xc,%esp
  100534:	c3                   	ret    
  100535:	8d b4 26 00 00 00 00 	lea    0x0(%esi,%eiz,1),%esi
  10053c:	8d 74 26 00          	lea    0x0(%esi,%eiz,1),%esi

00100540 <putchar>:
  100540:	56                   	push   %esi
  100541:	53                   	push   %ebx
  100542:	e8 42 fe ff ff       	call   100389 <__x86.get_pc_thunk.bx>
  100547:	81 c3 b9 0a 01 00    	add    $0x10ab9,%ebx
  10054d:	83 ec 10             	sub    $0x10,%esp
  100550:	0f be 74 24 1c       	movsbl 0x1c(%esp),%esi
  100555:	56                   	push   %esi
  100556:	e8 b5 01 00 00       	call   100710 <serial_putc>
  10055b:	89 34 24             	mov    %esi,(%esp)
  10055e:	e8 ed fb ff ff       	call   100150 <video_putc>
  100563:	83 c4 14             	add    $0x14,%esp
  100566:	5b                   	pop    %ebx
  100567:	5e                   	pop    %esi
  100568:	c3                   	ret    
  100569:	8d b4 26 00 00 00 00 	lea    0x0(%esi,%eiz,1),%esi

00100570 <readline>:
{
    cons_putc(c);
}

char *readline(const char *prompt)
{
  100570:	55                   	push   %ebp
  100571:	57                   	push   %edi
  100572:	56                   	push   %esi
  100573:	53                   	push   %ebx
  100574:	e8 10 fe ff ff       	call   100389 <__x86.get_pc_thunk.bx>
  100579:	81 c3 87 0a 01 00    	add    $0x10a87,%ebx
  10057f:	83 ec 1c             	sub    $0x1c,%esp
  100582:	8b 44 24 30          	mov    0x30(%esp),%eax
    int i;
    char c;

    if (prompt != NULL)
  100586:	85 c0                	test   %eax,%eax
  100588:	74 13                	je     10059d <readline+0x2d>
        dprintf("%s", prompt);
  10058a:	83 ec 08             	sub    $0x8,%esp
  10058d:	50                   	push   %eax
  10058e:	8d 83 76 98 ff ff    	lea    -0x678a(%ebx),%eax
  100594:	50                   	push   %eax
  100595:	e8 a6 3c 00 00       	call   104240 <dprintf>
  10059a:	83 c4 10             	add    $0x10,%esp
        } else if ((c == '\b' || c == '\x7f') && i > 0) {
            putchar('\b');
            i--;
        } else if (c >= ' ' && i < BUFLEN - 1) {
            putchar(c);
            linebuf[i++] = c;
  10059d:	31 f6                	xor    %esi,%esi
  10059f:	8d bb 40 72 02 00    	lea    0x27240(%ebx),%edi
  1005a5:	8d 76 00             	lea    0x0(%esi),%esi
    while ((c = cons_getc()) == 0)
  1005a8:	e8 b3 fe ff ff       	call   100460 <cons_getc>
  1005ad:	84 c0                	test   %al,%al
  1005af:	74 f7                	je     1005a8 <readline+0x38>
        if (c < 0) {
  1005b1:	0f 88 a2 00 00 00    	js     100659 <readline+0xe9>
        } else if ((c == '\b' || c == '\x7f') && i > 0) {
  1005b7:	3c 08                	cmp    $0x8,%al
  1005b9:	0f 94 c2             	sete   %dl
  1005bc:	3c 7f                	cmp    $0x7f,%al
  1005be:	0f 94 c1             	sete   %cl
  1005c1:	08 ca                	or     %cl,%dl
  1005c3:	74 04                	je     1005c9 <readline+0x59>
  1005c5:	85 f6                	test   %esi,%esi
  1005c7:	75 6f                	jne    100638 <readline+0xc8>
        } else if (c >= ' ' && i < BUFLEN - 1) {
  1005c9:	3c 1f                	cmp    $0x1f,%al
  1005cb:	7e 33                	jle    100600 <readline+0x90>
  1005cd:	81 fe fe 03 00 00    	cmp    $0x3fe,%esi
  1005d3:	7f 2b                	jg     100600 <readline+0x90>
            putchar(c);
  1005d5:	88 44 24 0f          	mov    %al,0xf(%esp)
  1005d9:	0f be e8             	movsbl %al,%ebp
    serial_putc(c);
  1005dc:	83 ec 0c             	sub    $0xc,%esp
  1005df:	55                   	push   %ebp
  1005e0:	e8 2b 01 00 00       	call   100710 <serial_putc>
    video_putc(c);
  1005e5:	89 2c 24             	mov    %ebp,(%esp)
  1005e8:	e8 63 fb ff ff       	call   100150 <video_putc>
            linebuf[i++] = c;
  1005ed:	0f b6 44 24 1f       	movzbl 0x1f(%esp),%eax
  1005f2:	83 c4 10             	add    $0x10,%esp
  1005f5:	88 04 37             	mov    %al,(%edi,%esi,1)
  1005f8:	83 c6 01             	add    $0x1,%esi
  1005fb:	eb ab                	jmp    1005a8 <readline+0x38>
  1005fd:	8d 76 00             	lea    0x0(%esi),%esi
        } else if (c == '\n' || c == '\r') {
  100600:	3c 0a                	cmp    $0xa,%al
  100602:	74 04                	je     100608 <readline+0x98>
  100604:	3c 0d                	cmp    $0xd,%al
  100606:	75 a0                	jne    1005a8 <readline+0x38>
    serial_putc(c);
  100608:	83 ec 0c             	sub    $0xc,%esp
  10060b:	6a 0a                	push   $0xa
  10060d:	e8 fe 00 00 00       	call   100710 <serial_putc>
    video_putc(c);
  100612:	c7 04 24 0a 00 00 00 	movl   $0xa,(%esp)
  100619:	e8 32 fb ff ff       	call   100150 <video_putc>
            putchar('\n');
            linebuf[i] = 0;
  10061e:	8d 83 40 72 02 00    	lea    0x27240(%ebx),%eax
            return linebuf;
  100624:	83 c4 10             	add    $0x10,%esp
            linebuf[i] = 0;
  100627:	c6 04 30 00          	movb   $0x0,(%eax,%esi,1)
        }
    }
}
  10062b:	83 c4 1c             	add    $0x1c,%esp
  10062e:	5b                   	pop    %ebx
  10062f:	5e                   	pop    %esi
  100630:	5f                   	pop    %edi
  100631:	5d                   	pop    %ebp
  100632:	c3                   	ret    
  100633:	8d 74 26 00          	lea    0x0(%esi,%eiz,1),%esi
  100637:	90                   	nop
    serial_putc(c);
  100638:	83 ec 0c             	sub    $0xc,%esp
            i--;
  10063b:	83 ee 01             	sub    $0x1,%esi
    serial_putc(c);
  10063e:	6a 08                	push   $0x8
  100640:	e8 cb 00 00 00       	call   100710 <serial_putc>
    video_putc(c);
  100645:	c7 04 24 08 00 00 00 	movl   $0x8,(%esp)
  10064c:	e8 ff fa ff ff       	call   100150 <video_putc>
            i--;
  100651:	83 c4 10             	add    $0x10,%esp
  100654:	e9 4f ff ff ff       	jmp    1005a8 <readline+0x38>
            dprintf("read error: %e\n", c);
  100659:	83 ec 08             	sub    $0x8,%esp
  10065c:	0f be c0             	movsbl %al,%eax
  10065f:	50                   	push   %eax
  100660:	8d 83 0e 80 ff ff    	lea    -0x7ff2(%ebx),%eax
  100666:	50                   	push   %eax
  100667:	e8 d4 3b 00 00       	call   104240 <dprintf>
            return NULL;
  10066c:	83 c4 10             	add    $0x10,%esp
  10066f:	31 c0                	xor    %eax,%eax
}
  100671:	83 c4 1c             	add    $0x1c,%esp
  100674:	5b                   	pop    %ebx
  100675:	5e                   	pop    %esi
  100676:	5f                   	pop    %edi
  100677:	5d                   	pop    %ebp
  100678:	c3                   	ret    
  100679:	66 90                	xchg   %ax,%ax
  10067b:	66 90                	xchg   %ax,%ax
  10067d:	66 90                	xchg   %ax,%ax
  10067f:	90                   	nop

00100680 <serial_proc_data>:
    inb(0x84);
    inb(0x84);
}

static int serial_proc_data(void)
{
  100680:	53                   	push   %ebx
  100681:	e8 03 fd ff ff       	call   100389 <__x86.get_pc_thunk.bx>
  100686:	81 c3 7a 09 01 00    	add    $0x1097a,%ebx
  10068c:	83 ec 14             	sub    $0x14,%esp
    if (!(inb(COM1 + COM_LSR) & COM_LSR_DATA))
  10068f:	68 fd 03 00 00       	push   $0x3fd
  100694:	e8 b7 47 00 00       	call   104e50 <inb>
  100699:	83 c4 10             	add    $0x10,%esp
  10069c:	a8 01                	test   $0x1,%al
  10069e:	74 20                	je     1006c0 <serial_proc_data+0x40>
        return -1;
    return inb(COM1 + COM_RX);
  1006a0:	83 ec 0c             	sub    $0xc,%esp
  1006a3:	68 f8 03 00 00       	push   $0x3f8
  1006a8:	e8 a3 47 00 00       	call   104e50 <inb>
  1006ad:	83 c4 10             	add    $0x10,%esp
  1006b0:	0f b6 c0             	movzbl %al,%eax
}
  1006b3:	83 c4 08             	add    $0x8,%esp
  1006b6:	5b                   	pop    %ebx
  1006b7:	c3                   	ret    
  1006b8:	8d b4 26 00 00 00 00 	lea    0x0(%esi,%eiz,1),%esi
  1006bf:	90                   	nop
        return -1;
  1006c0:	b8 ff ff ff ff       	mov    $0xffffffff,%eax
  1006c5:	eb ec                	jmp    1006b3 <serial_proc_data+0x33>
  1006c7:	8d b4 26 00 00 00 00 	lea    0x0(%esi,%eiz,1),%esi
  1006ce:	66 90                	xchg   %ax,%ax

001006d0 <serial_intr>:

void serial_intr(void)
{
  1006d0:	53                   	push   %ebx
  1006d1:	e8 b3 fc ff ff       	call   100389 <__x86.get_pc_thunk.bx>
  1006d6:	81 c3 2a 09 01 00    	add    $0x1092a,%ebx
  1006dc:	83 ec 08             	sub    $0x8,%esp
    if (serial_exists)
  1006df:	80 bb 40 76 02 00 00 	cmpb   $0x0,0x27640(%ebx)
  1006e6:	75 08                	jne    1006f0 <serial_intr+0x20>
        cons_intr(serial_proc_data);
}
  1006e8:	83 c4 08             	add    $0x8,%esp
  1006eb:	5b                   	pop    %ebx
  1006ec:	c3                   	ret    
  1006ed:	8d 76 00             	lea    0x0(%esi),%esi
        cons_intr(serial_proc_data);
  1006f0:	83 ec 0c             	sub    $0xc,%esp
  1006f3:	8d 83 80 f6 fe ff    	lea    -0x10980(%ebx),%eax
  1006f9:	50                   	push   %eax
  1006fa:	e8 d1 fc ff ff       	call   1003d0 <cons_intr>
  1006ff:	83 c4 10             	add    $0x10,%esp
}
  100702:	83 c4 08             	add    $0x8,%esp
  100705:	5b                   	pop    %ebx
  100706:	c3                   	ret    
  100707:	8d b4 26 00 00 00 00 	lea    0x0(%esi,%eiz,1),%esi
  10070e:	66 90                	xchg   %ax,%ax

00100710 <serial_putc>:
    } else
        return 0;
}

void serial_putc(char c)
{
  100710:	55                   	push   %ebp
  100711:	57                   	push   %edi
  100712:	56                   	push   %esi
  100713:	53                   	push   %ebx
  100714:	e8 70 fc ff ff       	call   100389 <__x86.get_pc_thunk.bx>
  100719:	81 c3 e7 08 01 00    	add    $0x108e7,%ebx
  10071f:	83 ec 0c             	sub    $0xc,%esp
  100722:	8b 7c 24 20          	mov    0x20(%esp),%edi
    if (!serial_exists)
  100726:	80 bb 40 76 02 00 00 	cmpb   $0x0,0x27640(%ebx)
  10072d:	75 11                	jne    100740 <serial_putc+0x30>

    if (!serial_reformatnewline(c, COM1 + COM_TX))
        outb(COM1 + COM_TX, c);

    spinlock_release(&serial_lock);
}
  10072f:	83 c4 0c             	add    $0xc,%esp
  100732:	5b                   	pop    %ebx
  100733:	5e                   	pop    %esi
  100734:	5f                   	pop    %edi
  100735:	5d                   	pop    %ebp
  100736:	c3                   	ret    
  100737:	8d b4 26 00 00 00 00 	lea    0x0(%esi,%eiz,1),%esi
  10073e:	66 90                	xchg   %ax,%ax
    spinlock_acquire(&serial_lock);
  100740:	83 ec 0c             	sub    $0xc,%esp
  100743:	8d ab 44 76 02 00    	lea    0x27644(%ebx),%ebp
    for (i = 0; !(inb(COM1 + COM_LSR) & COM_LSR_TXRDY) && i < 12800; i++)
  100749:	31 f6                	xor    %esi,%esi
    spinlock_acquire(&serial_lock);
  10074b:	55                   	push   %ebp
  10074c:	e8 2f 50 00 00       	call   105780 <spinlock_acquire>
    for (i = 0; !(inb(COM1 + COM_LSR) & COM_LSR_TXRDY) && i < 12800; i++)
  100751:	83 c4 10             	add    $0x10,%esp
  100754:	eb 49                	jmp    10079f <serial_putc+0x8f>
  100756:	8d b4 26 00 00 00 00 	lea    0x0(%esi,%eiz,1),%esi
  10075d:	8d 76 00             	lea    0x0(%esi),%esi
  100760:	81 fe 00 32 00 00    	cmp    $0x3200,%esi
  100766:	74 4b                	je     1007b3 <serial_putc+0xa3>
    inb(0x84);
  100768:	83 ec 0c             	sub    $0xc,%esp
    for (i = 0; !(inb(COM1 + COM_LSR) & COM_LSR_TXRDY) && i < 12800; i++)
  10076b:	83 c6 01             	add    $0x1,%esi
    inb(0x84);
  10076e:	68 84 00 00 00       	push   $0x84
  100773:	e8 d8 46 00 00       	call   104e50 <inb>
    inb(0x84);
  100778:	c7 04 24 84 00 00 00 	movl   $0x84,(%esp)
  10077f:	e8 cc 46 00 00       	call   104e50 <inb>
    inb(0x84);
  100784:	c7 04 24 84 00 00 00 	movl   $0x84,(%esp)
  10078b:	e8 c0 46 00 00       	call   104e50 <inb>
    inb(0x84);
  100790:	c7 04 24 84 00 00 00 	movl   $0x84,(%esp)
  100797:	e8 b4 46 00 00       	call   104e50 <inb>
    for (i = 0; !(inb(COM1 + COM_LSR) & COM_LSR_TXRDY) && i < 12800; i++)
  10079c:	83 c4 10             	add    $0x10,%esp
  10079f:	83 ec 0c             	sub    $0xc,%esp
  1007a2:	68 fd 03 00 00       	push   $0x3fd
  1007a7:	e8 a4 46 00 00       	call   104e50 <inb>
  1007ac:	83 c4 10             	add    $0x10,%esp
  1007af:	a8 20                	test   $0x20,%al
  1007b1:	74 ad                	je     100760 <serial_putc+0x50>
    if (c == nl) {
  1007b3:	89 f8                	mov    %edi,%eax
  1007b5:	3c 0a                	cmp    $0xa,%al
  1007b7:	74 2f                	je     1007e8 <serial_putc+0xd8>
        outb(COM1 + COM_TX, c);
  1007b9:	83 ec 08             	sub    $0x8,%esp
  1007bc:	0f b6 f8             	movzbl %al,%edi
  1007bf:	57                   	push   %edi
  1007c0:	68 f8 03 00 00       	push   $0x3f8
  1007c5:	e8 b6 46 00 00       	call   104e80 <outb>
  1007ca:	83 c4 10             	add    $0x10,%esp
    spinlock_release(&serial_lock);
  1007cd:	83 ec 0c             	sub    $0xc,%esp
  1007d0:	55                   	push   %ebp
  1007d1:	e8 2a 50 00 00       	call   105800 <spinlock_release>
  1007d6:	83 c4 10             	add    $0x10,%esp
}
  1007d9:	83 c4 0c             	add    $0xc,%esp
  1007dc:	5b                   	pop    %ebx
  1007dd:	5e                   	pop    %esi
  1007de:	5f                   	pop    %edi
  1007df:	5d                   	pop    %ebp
  1007e0:	c3                   	ret    
  1007e1:	8d b4 26 00 00 00 00 	lea    0x0(%esi,%eiz,1),%esi
        outb(p, cr);
  1007e8:	83 ec 08             	sub    $0x8,%esp
  1007eb:	6a 0d                	push   $0xd
  1007ed:	68 f8 03 00 00       	push   $0x3f8
  1007f2:	e8 89 46 00 00       	call   104e80 <outb>
        outb(p, nl);
  1007f7:	58                   	pop    %eax
  1007f8:	5a                   	pop    %edx
  1007f9:	6a 0a                	push   $0xa
  1007fb:	68 f8 03 00 00       	push   $0x3f8
  100800:	e8 7b 46 00 00       	call   104e80 <outb>
  100805:	83 c4 10             	add    $0x10,%esp
  100808:	eb c3                	jmp    1007cd <serial_putc+0xbd>
  10080a:	8d b6 00 00 00 00    	lea    0x0(%esi),%esi

00100810 <serial_init>:

void serial_init(void)
{
  100810:	53                   	push   %ebx
  100811:	e8 73 fb ff ff       	call   100389 <__x86.get_pc_thunk.bx>
  100816:	81 c3 ea 07 01 00    	add    $0x107ea,%ebx
  10081c:	83 ec 10             	sub    $0x10,%esp
    /* turn off interrupt */
    outb(COM1 + COM_IER, 0);
  10081f:	6a 00                	push   $0x0
  100821:	68 f9 03 00 00       	push   $0x3f9
  100826:	e8 55 46 00 00       	call   104e80 <outb>

    /* set DLAB */
    outb(COM1 + COM_LCR, COM_LCR_DLAB);
  10082b:	58                   	pop    %eax
  10082c:	5a                   	pop    %edx
  10082d:	68 80 00 00 00       	push   $0x80
  100832:	68 fb 03 00 00       	push   $0x3fb
  100837:	e8 44 46 00 00       	call   104e80 <outb>

    /* set baud rate */
    outb(COM1 + COM_DLL, 0x0001 & 0xff);
  10083c:	59                   	pop    %ecx
  10083d:	58                   	pop    %eax
  10083e:	6a 01                	push   $0x1
  100840:	68 f8 03 00 00       	push   $0x3f8
  100845:	e8 36 46 00 00       	call   104e80 <outb>
    outb(COM1 + COM_DLM, 0x0001 >> 8);
  10084a:	58                   	pop    %eax
  10084b:	5a                   	pop    %edx
  10084c:	6a 00                	push   $0x0
  10084e:	68 f9 03 00 00       	push   $0x3f9
  100853:	e8 28 46 00 00       	call   104e80 <outb>

    /* Set the line status. */
    outb(COM1 + COM_LCR, COM_LCR_WLEN8 & ~COM_LCR_DLAB);
  100858:	59                   	pop    %ecx
  100859:	58                   	pop    %eax
  10085a:	6a 03                	push   $0x3
  10085c:	68 fb 03 00 00       	push   $0x3fb
  100861:	e8 1a 46 00 00       	call   104e80 <outb>

    /* Enable the FIFO. */
    outb(COM1 + COM_FCR, 0xc7);
  100866:	58                   	pop    %eax
  100867:	5a                   	pop    %edx
  100868:	68 c7 00 00 00       	push   $0xc7
  10086d:	68 fa 03 00 00       	push   $0x3fa
  100872:	e8 09 46 00 00       	call   104e80 <outb>

    /* Turn on DTR, RTS, and OUT2. */
    outb(COM1 + COM_MCR, 0x0b);
  100877:	59                   	pop    %ecx
  100878:	58                   	pop    %eax
  100879:	6a 0b                	push   $0xb
  10087b:	68 fc 03 00 00       	push   $0x3fc
  100880:	e8 fb 45 00 00       	call   104e80 <outb>

    // Clear any preexisting overrun indications and interrupts
    // Serial COM1 doesn't exist if COM_LSR returns 0xFF
    serial_exists = (inb(COM1 + COM_LSR) != 0xFF);
  100885:	c7 04 24 fd 03 00 00 	movl   $0x3fd,(%esp)
  10088c:	e8 bf 45 00 00       	call   104e50 <inb>
    (void) inb(COM1 + COM_IIR);
  100891:	c7 04 24 fa 03 00 00 	movl   $0x3fa,(%esp)
    serial_exists = (inb(COM1 + COM_LSR) != 0xFF);
  100898:	3c ff                	cmp    $0xff,%al
  10089a:	0f 95 83 40 76 02 00 	setne  0x27640(%ebx)
    (void) inb(COM1 + COM_IIR);
  1008a1:	e8 aa 45 00 00       	call   104e50 <inb>
    (void) inb(COM1 + COM_RX);
  1008a6:	c7 04 24 f8 03 00 00 	movl   $0x3f8,(%esp)
  1008ad:	e8 9e 45 00 00       	call   104e50 <inb>

    // initialize the lock
    spinlock_init(&serial_lock);
  1008b2:	8d 83 44 76 02 00    	lea    0x27644(%ebx),%eax
  1008b8:	89 04 24             	mov    %eax,(%esp)
  1008bb:	e8 30 4e 00 00       	call   1056f0 <spinlock_init>
}
  1008c0:	83 c4 18             	add    $0x18,%esp
  1008c3:	5b                   	pop    %ebx
  1008c4:	c3                   	ret    
  1008c5:	8d b4 26 00 00 00 00 	lea    0x0(%esi,%eiz,1),%esi
  1008cc:	8d 74 26 00          	lea    0x0(%esi,%eiz,1),%esi

001008d0 <serial_intenable>:

void serial_intenable(void)
{
  1008d0:	53                   	push   %ebx
  1008d1:	e8 b3 fa ff ff       	call   100389 <__x86.get_pc_thunk.bx>
  1008d6:	81 c3 2a 07 01 00    	add    $0x1072a,%ebx
  1008dc:	83 ec 08             	sub    $0x8,%esp
    if (serial_exists) {
  1008df:	80 bb 40 76 02 00 00 	cmpb   $0x0,0x27640(%ebx)
  1008e6:	75 08                	jne    1008f0 <serial_intenable+0x20>
        outb(COM1 + COM_IER, 1);
        serial_intr();
    }
}
  1008e8:	83 c4 08             	add    $0x8,%esp
  1008eb:	5b                   	pop    %ebx
  1008ec:	c3                   	ret    
  1008ed:	8d 76 00             	lea    0x0(%esi),%esi
        outb(COM1 + COM_IER, 1);
  1008f0:	83 ec 08             	sub    $0x8,%esp
  1008f3:	6a 01                	push   $0x1
  1008f5:	68 f9 03 00 00       	push   $0x3f9
  1008fa:	e8 81 45 00 00       	call   104e80 <outb>
    if (serial_exists)
  1008ff:	83 c4 10             	add    $0x10,%esp
  100902:	80 bb 40 76 02 00 00 	cmpb   $0x0,0x27640(%ebx)
  100909:	74 dd                	je     1008e8 <serial_intenable+0x18>
        cons_intr(serial_proc_data);
  10090b:	83 ec 0c             	sub    $0xc,%esp
  10090e:	8d 83 80 f6 fe ff    	lea    -0x10980(%ebx),%eax
  100914:	50                   	push   %eax
  100915:	e8 b6 fa ff ff       	call   1003d0 <cons_intr>
  10091a:	83 c4 10             	add    $0x10,%esp
}
  10091d:	83 c4 08             	add    $0x8,%esp
  100920:	5b                   	pop    %ebx
  100921:	c3                   	ret    
  100922:	66 90                	xchg   %ax,%ax
  100924:	66 90                	xchg   %ax,%ax
  100926:	66 90                	xchg   %ax,%ax
  100928:	66 90                	xchg   %ax,%ax
  10092a:	66 90                	xchg   %ax,%ax
  10092c:	66 90                	xchg   %ax,%ax
  10092e:	66 90                	xchg   %ax,%ax

00100930 <kbd_proc_data>:
/*
 * Get data from the keyboard. If we finish a character, return it. Else 0.
 * Return -1 if no data.
 */
static int kbd_proc_data(void)
{
  100930:	56                   	push   %esi
  100931:	53                   	push   %ebx
  100932:	e8 52 fa ff ff       	call   100389 <__x86.get_pc_thunk.bx>
  100937:	81 c3 c9 06 01 00    	add    $0x106c9,%ebx
  10093d:	83 ec 10             	sub    $0x10,%esp
    int c;
    uint8_t data;
    static uint32_t shift;

    if ((inb(KBSTATP) & KBS_DIB) == 0)
  100940:	6a 64                	push   $0x64
  100942:	e8 09 45 00 00       	call   104e50 <inb>
  100947:	83 c4 10             	add    $0x10,%esp
  10094a:	a8 01                	test   $0x1,%al
  10094c:	0f 84 2e 01 00 00    	je     100a80 <kbd_proc_data+0x150>
        return -1;

    data = inb(KBDATAP);
  100952:	83 ec 0c             	sub    $0xc,%esp
  100955:	6a 60                	push   $0x60
  100957:	e8 f4 44 00 00       	call   104e50 <inb>

    if (data == 0xE0) {
  10095c:	83 c4 10             	add    $0x10,%esp
  10095f:	3c e0                	cmp    $0xe0,%al
  100961:	0f 84 89 00 00 00    	je     1009f0 <kbd_proc_data+0xc0>
        // E0 escape character
        shift |= E0ESC;
  100967:	8b 8b 4c 76 02 00    	mov    0x2764c(%ebx),%ecx
        return 0;
    } else if (data & 0x80) {
        // Key released
        data = (shift & E0ESC ? data : data & 0x7F);
  10096d:	89 ca                	mov    %ecx,%edx
  10096f:	83 e2 40             	and    $0x40,%edx
    } else if (data & 0x80) {
  100972:	84 c0                	test   %al,%al
  100974:	0f 88 8e 00 00 00    	js     100a08 <kbd_proc_data+0xd8>
        shift &= ~(shiftcode[data] | E0ESC);
        return 0;
    } else if (shift & E0ESC) {
  10097a:	85 d2                	test   %edx,%edx
  10097c:	74 06                	je     100984 <kbd_proc_data+0x54>
        // Last character was an E0 escape; or with 0x80
        data |= 0x80;
  10097e:	83 c8 80             	or     $0xffffff80,%eax
        shift &= ~E0ESC;
  100981:	83 e1 bf             	and    $0xffffffbf,%ecx
    }

    shift |= shiftcode[data];
  100984:	0f b6 c0             	movzbl %al,%eax
  100987:	0f b6 94 03 40 81 ff 	movzbl -0x7ec0(%ebx,%eax,1),%edx
  10098e:	ff 
  10098f:	09 ca                	or     %ecx,%edx
    shift ^= togglecode[data];
  100991:	0f b6 8c 03 40 80 ff 	movzbl -0x7fc0(%ebx,%eax,1),%ecx
  100998:	ff 
  100999:	31 ca                	xor    %ecx,%edx

    c = charcode[shift & (CTL | SHIFT)][data];
  10099b:	89 d1                	mov    %edx,%ecx
    shift ^= togglecode[data];
  10099d:	89 93 4c 76 02 00    	mov    %edx,0x2764c(%ebx)
    c = charcode[shift & (CTL | SHIFT)][data];
  1009a3:	83 e1 03             	and    $0x3,%ecx
  1009a6:	8b 8c 8b d8 ff ff ff 	mov    -0x28(%ebx,%ecx,4),%ecx
  1009ad:	0f b6 34 01          	movzbl (%ecx,%eax,1),%esi
    if (shift & CAPSLOCK) {
  1009b1:	f6 c2 08             	test   $0x8,%dl
  1009b4:	75 22                	jne    1009d8 <kbd_proc_data+0xa8>
        else if ('A' <= c && c <= 'Z')
            c += 'a' - 'A';
    }
    // Process special keys
    // Ctrl-Alt-Del: reboot
    if (!(~shift & (CTL | ALT)) && c == KEY_DEL) {
  1009b6:	f7 d2                	not    %edx
  1009b8:	83 e2 06             	and    $0x6,%edx
  1009bb:	75 0c                	jne    1009c9 <kbd_proc_data+0x99>
  1009bd:	81 fe e9 00 00 00    	cmp    $0xe9,%esi
  1009c3:	0f 84 8f 00 00 00    	je     100a58 <kbd_proc_data+0x128>
        dprintf("Rebooting!\n");
        outb(0x92, 0x3);  // courtesy of Chris Frost
    }

    return c;
}
  1009c9:	83 c4 04             	add    $0x4,%esp
  1009cc:	89 f0                	mov    %esi,%eax
  1009ce:	5b                   	pop    %ebx
  1009cf:	5e                   	pop    %esi
  1009d0:	c3                   	ret    
  1009d1:	8d b4 26 00 00 00 00 	lea    0x0(%esi,%eiz,1),%esi
        if ('a' <= c && c <= 'z')
  1009d8:	8d 46 9f             	lea    -0x61(%esi),%eax
  1009db:	83 f8 19             	cmp    $0x19,%eax
  1009de:	77 60                	ja     100a40 <kbd_proc_data+0x110>
            c += 'A' - 'a';
  1009e0:	83 ee 20             	sub    $0x20,%esi
}
  1009e3:	83 c4 04             	add    $0x4,%esp
  1009e6:	89 f0                	mov    %esi,%eax
  1009e8:	5b                   	pop    %ebx
  1009e9:	5e                   	pop    %esi
  1009ea:	c3                   	ret    
  1009eb:	8d 74 26 00          	lea    0x0(%esi,%eiz,1),%esi
  1009ef:	90                   	nop
        shift |= E0ESC;
  1009f0:	83 8b 4c 76 02 00 40 	orl    $0x40,0x2764c(%ebx)
        return 0;
  1009f7:	31 f6                	xor    %esi,%esi
}
  1009f9:	83 c4 04             	add    $0x4,%esp
  1009fc:	89 f0                	mov    %esi,%eax
  1009fe:	5b                   	pop    %ebx
  1009ff:	5e                   	pop    %esi
  100a00:	c3                   	ret    
  100a01:	8d b4 26 00 00 00 00 	lea    0x0(%esi,%eiz,1),%esi
        data = (shift & E0ESC ? data : data & 0x7F);
  100a08:	89 c6                	mov    %eax,%esi
  100a0a:	83 e6 7f             	and    $0x7f,%esi
  100a0d:	85 d2                	test   %edx,%edx
  100a0f:	0f 44 c6             	cmove  %esi,%eax
        return 0;
  100a12:	31 f6                	xor    %esi,%esi
        shift &= ~(shiftcode[data] | E0ESC);
  100a14:	0f b6 c0             	movzbl %al,%eax
  100a17:	0f b6 84 03 40 81 ff 	movzbl -0x7ec0(%ebx,%eax,1),%eax
  100a1e:	ff 
  100a1f:	83 c8 40             	or     $0x40,%eax
  100a22:	0f b6 c0             	movzbl %al,%eax
  100a25:	f7 d0                	not    %eax
  100a27:	21 c8                	and    %ecx,%eax
  100a29:	89 83 4c 76 02 00    	mov    %eax,0x2764c(%ebx)
}
  100a2f:	83 c4 04             	add    $0x4,%esp
  100a32:	89 f0                	mov    %esi,%eax
  100a34:	5b                   	pop    %ebx
  100a35:	5e                   	pop    %esi
  100a36:	c3                   	ret    
  100a37:	8d b4 26 00 00 00 00 	lea    0x0(%esi,%eiz,1),%esi
  100a3e:	66 90                	xchg   %ax,%ax
        else if ('A' <= c && c <= 'Z')
  100a40:	8d 4e bf             	lea    -0x41(%esi),%ecx
            c += 'a' - 'A';
  100a43:	8d 46 20             	lea    0x20(%esi),%eax
  100a46:	83 f9 1a             	cmp    $0x1a,%ecx
  100a49:	0f 42 f0             	cmovb  %eax,%esi
  100a4c:	e9 65 ff ff ff       	jmp    1009b6 <kbd_proc_data+0x86>
  100a51:	8d b4 26 00 00 00 00 	lea    0x0(%esi,%eiz,1),%esi
        dprintf("Rebooting!\n");
  100a58:	83 ec 0c             	sub    $0xc,%esp
  100a5b:	8d 83 1e 80 ff ff    	lea    -0x7fe2(%ebx),%eax
  100a61:	50                   	push   %eax
  100a62:	e8 d9 37 00 00       	call   104240 <dprintf>
        outb(0x92, 0x3);  // courtesy of Chris Frost
  100a67:	58                   	pop    %eax
  100a68:	5a                   	pop    %edx
  100a69:	6a 03                	push   $0x3
  100a6b:	68 92 00 00 00       	push   $0x92
  100a70:	e8 0b 44 00 00       	call   104e80 <outb>
  100a75:	83 c4 10             	add    $0x10,%esp
  100a78:	e9 4c ff ff ff       	jmp    1009c9 <kbd_proc_data+0x99>
  100a7d:	8d 76 00             	lea    0x0(%esi),%esi
        return -1;
  100a80:	be ff ff ff ff       	mov    $0xffffffff,%esi
  100a85:	e9 3f ff ff ff       	jmp    1009c9 <kbd_proc_data+0x99>
  100a8a:	8d b6 00 00 00 00    	lea    0x0(%esi),%esi

00100a90 <keyboard_intr>:

void keyboard_intr(void)
{
  100a90:	53                   	push   %ebx
  100a91:	e8 f3 f8 ff ff       	call   100389 <__x86.get_pc_thunk.bx>
  100a96:	81 c3 6a 05 01 00    	add    $0x1056a,%ebx
  100a9c:	83 ec 14             	sub    $0x14,%esp
    cons_intr(kbd_proc_data);
  100a9f:	8d 83 30 f9 fe ff    	lea    -0x106d0(%ebx),%eax
  100aa5:	50                   	push   %eax
  100aa6:	e8 25 f9 ff ff       	call   1003d0 <cons_intr>
}
  100aab:	83 c4 18             	add    $0x18,%esp
  100aae:	5b                   	pop    %ebx
  100aaf:	c3                   	ret    

00100ab0 <devinit>:
#include "tsc.h"

void intr_init(void);

void devinit(uintptr_t mbi_addr)
{
  100ab0:	56                   	push   %esi
  100ab1:	53                   	push   %ebx
  100ab2:	e8 d2 f8 ff ff       	call   100389 <__x86.get_pc_thunk.bx>
  100ab7:	81 c3 49 05 01 00    	add    $0x10549,%ebx
  100abd:	83 ec 10             	sub    $0x10,%esp
  100ac0:	8b 74 24 1c          	mov    0x1c(%esp),%esi
    seg_init(0);
  100ac4:	6a 00                	push   $0x0
  100ac6:	e8 55 3e 00 00       	call   104920 <seg_init>

    enable_sse();
  100acb:	e8 30 42 00 00       	call   104d00 <enable_sse>

    cons_init();
  100ad0:	e8 bb f8 ff ff       	call   100390 <cons_init>

    debug_init();
  100ad5:	e8 d6 34 00 00       	call   103fb0 <debug_init>
    KERN_INFO("[BSP KERN] cons initialized.\n");
  100ada:	8d 83 40 82 ff ff    	lea    -0x7dc0(%ebx),%eax
  100ae0:	89 04 24             	mov    %eax,(%esp)
  100ae3:	e8 d8 34 00 00       	call   103fc0 <debug_info>
    KERN_INFO("[BSP KERN] devinit mbi_addr: %d\n", mbi_addr);
  100ae8:	58                   	pop    %eax
  100ae9:	8d 83 10 83 ff ff    	lea    -0x7cf0(%ebx),%eax
  100aef:	5a                   	pop    %edx
  100af0:	56                   	push   %esi
  100af1:	50                   	push   %eax
  100af2:	e8 c9 34 00 00       	call   103fc0 <debug_info>

    /* pcpu init codes */
    pcpu_init();
  100af7:	e8 d4 54 00 00       	call   105fd0 <pcpu_init>
    KERN_INFO("[BSP KERN] PCPU initialized\n");
  100afc:	8d 83 5e 82 ff ff    	lea    -0x7da2(%ebx),%eax
  100b02:	89 04 24             	mov    %eax,(%esp)
  100b05:	e8 b6 34 00 00       	call   103fc0 <debug_info>

    tsc_init();
  100b0a:	e8 81 11 00 00       	call   101c90 <tsc_init>
    KERN_INFO("[BSP KERN] TSC initialized\n");
  100b0f:	8d 83 7b 82 ff ff    	lea    -0x7d85(%ebx),%eax
  100b15:	89 04 24             	mov    %eax,(%esp)
  100b18:	e8 a3 34 00 00       	call   103fc0 <debug_info>

    intr_init();
  100b1d:	e8 ce 06 00 00       	call   1011f0 <intr_init>
    KERN_INFO("[BSP KERN] INTR initialized\n");
  100b22:	8d 83 97 82 ff ff    	lea    -0x7d69(%ebx),%eax
  100b28:	89 04 24             	mov    %eax,(%esp)
  100b2b:	e8 90 34 00 00       	call   103fc0 <debug_info>

    trap_init(0);
  100b30:	c7 04 24 00 00 00 00 	movl   $0x0,(%esp)
  100b37:	e8 c4 79 00 00       	call   108500 <trap_init>

    pmmap_init(mbi_addr);
  100b3c:	89 34 24             	mov    %esi,(%esp)
  100b3f:	e8 3c 01 00 00       	call   100c80 <pmmap_init>
}
  100b44:	83 c4 14             	add    $0x14,%esp
  100b47:	5b                   	pop    %ebx
  100b48:	5e                   	pop    %esi
  100b49:	c3                   	ret    
  100b4a:	8d b6 00 00 00 00    	lea    0x0(%esi),%esi

00100b50 <devinit_ap>:

void devinit_ap(void)
{
  100b50:	56                   	push   %esi
  100b51:	53                   	push   %ebx
  100b52:	e8 32 f8 ff ff       	call   100389 <__x86.get_pc_thunk.bx>
  100b57:	81 c3 a9 04 01 00    	add    $0x104a9,%ebx
  100b5d:	83 ec 04             	sub    $0x4,%esp
    /* Figure out the current (booting) kernel stack) */
    struct kstack *ks = (struct kstack *) ROUNDDOWN(read_esp(), KSTACK_SIZE);
  100b60:	e8 cb 40 00 00       	call   104c30 <read_esp>

    KERN_ASSERT(ks != NULL);
  100b65:	25 00 f0 ff ff       	and    $0xfffff000,%eax
  100b6a:	89 c6                	mov    %eax,%esi
  100b6c:	74 6a                	je     100bd8 <devinit_ap+0x88>
    KERN_ASSERT(1 <= ks->cpu_idx && ks->cpu_idx < 8);
  100b6e:	8b 86 1c 01 00 00    	mov    0x11c(%esi),%eax
  100b74:	8d 50 ff             	lea    -0x1(%eax),%edx
  100b77:	83 fa 06             	cmp    $0x6,%edx
  100b7a:	0f 87 89 00 00 00    	ja     100c09 <devinit_ap+0xb9>

    /* kernel stack for this cpu initialized */
    seg_init(ks->cpu_idx);
  100b80:	83 ec 0c             	sub    $0xc,%esp
  100b83:	50                   	push   %eax
  100b84:	e8 97 3d 00 00       	call   104920 <seg_init>

    pcpu_init();
  100b89:	e8 42 54 00 00       	call   105fd0 <pcpu_init>
    KERN_INFO("[AP%d KERN] PCPU initialized\n", ks->cpu_idx);
  100b8e:	58                   	pop    %eax
  100b8f:	8d 83 ef 82 ff ff    	lea    -0x7d11(%ebx),%eax
  100b95:	5a                   	pop    %edx
  100b96:	ff b6 1c 01 00 00    	push   0x11c(%esi)
  100b9c:	50                   	push   %eax
  100b9d:	e8 1e 34 00 00       	call   103fc0 <debug_info>

    intr_init();
  100ba2:	e8 49 06 00 00       	call   1011f0 <intr_init>
    KERN_INFO("[AP%d KERN] INTR initialized.\n", ks->cpu_idx);
  100ba7:	59                   	pop    %ecx
  100ba8:	58                   	pop    %eax
  100ba9:	8d 83 58 83 ff ff    	lea    -0x7ca8(%ebx),%eax
  100baf:	ff b6 1c 01 00 00    	push   0x11c(%esi)
  100bb5:	50                   	push   %eax
  100bb6:	e8 05 34 00 00       	call   103fc0 <debug_info>

    trap_init(ks->cpu_idx);
  100bbb:	58                   	pop    %eax
  100bbc:	ff b6 1c 01 00 00    	push   0x11c(%esi)
  100bc2:	e8 39 79 00 00       	call   108500 <trap_init>

    paging_init_ap();
  100bc7:	e8 e4 64 00 00       	call   1070b0 <paging_init_ap>
}
  100bcc:	83 c4 14             	add    $0x14,%esp
  100bcf:	5b                   	pop    %ebx
  100bd0:	5e                   	pop    %esi
  100bd1:	c3                   	ret    
  100bd2:	8d b6 00 00 00 00    	lea    0x0(%esi),%esi
    KERN_ASSERT(ks != NULL);
  100bd8:	8d 83 b4 82 ff ff    	lea    -0x7d4c(%ebx),%eax
  100bde:	50                   	push   %eax
  100bdf:	8d 83 bf 82 ff ff    	lea    -0x7d41(%ebx),%eax
  100be5:	50                   	push   %eax
  100be6:	8d 83 dc 82 ff ff    	lea    -0x7d24(%ebx),%eax
  100bec:	6a 31                	push   $0x31
  100bee:	50                   	push   %eax
  100bef:	e8 3c 34 00 00       	call   104030 <debug_panic>
    KERN_ASSERT(1 <= ks->cpu_idx && ks->cpu_idx < 8);
  100bf4:	8b 86 1c 01 00 00    	mov    0x11c(%esi),%eax
    KERN_ASSERT(ks != NULL);
  100bfa:	83 c4 10             	add    $0x10,%esp
    KERN_ASSERT(1 <= ks->cpu_idx && ks->cpu_idx < 8);
  100bfd:	8d 50 ff             	lea    -0x1(%eax),%edx
  100c00:	83 fa 06             	cmp    $0x6,%edx
  100c03:	0f 86 77 ff ff ff    	jbe    100b80 <devinit_ap+0x30>
  100c09:	8d 83 34 83 ff ff    	lea    -0x7ccc(%ebx),%eax
  100c0f:	50                   	push   %eax
  100c10:	8d 83 bf 82 ff ff    	lea    -0x7d41(%ebx),%eax
  100c16:	50                   	push   %eax
  100c17:	8d 83 dc 82 ff ff    	lea    -0x7d24(%ebx),%eax
  100c1d:	6a 32                	push   $0x32
  100c1f:	50                   	push   %eax
  100c20:	e8 0b 34 00 00       	call   104030 <debug_panic>
    seg_init(ks->cpu_idx);
  100c25:	8b 86 1c 01 00 00    	mov    0x11c(%esi),%eax
  100c2b:	83 c4 10             	add    $0x10,%esp
  100c2e:	e9 4d ff ff ff       	jmp    100b80 <devinit_ap+0x30>
  100c33:	66 90                	xchg   %ax,%ax
  100c35:	66 90                	xchg   %ax,%ax
  100c37:	66 90                	xchg   %ax,%ax
  100c39:	66 90                	xchg   %ax,%ax
  100c3b:	66 90                	xchg   %ax,%ax
  100c3d:	66 90                	xchg   %ax,%ax
  100c3f:	90                   	nop

00100c40 <pmmap_alloc_slot>:
    if (unlikely(pmmap_slots_next_free == 128))
  100c40:	e8 40 f7 ff ff       	call   100385 <__x86.get_pc_thunk.dx>
  100c45:	81 c2 bb 03 01 00    	add    $0x103bb,%edx
  100c4b:	8b 82 7c 76 02 00    	mov    0x2767c(%edx),%eax
  100c51:	3d 80 00 00 00       	cmp    $0x80,%eax
  100c56:	74 18                	je     100c70 <pmmap_alloc_slot+0x30>
    return &pmmap_slots[pmmap_slots_next_free++];
  100c58:	8d 48 01             	lea    0x1(%eax),%ecx
  100c5b:	8d 04 80             	lea    (%eax,%eax,4),%eax
  100c5e:	89 8a 7c 76 02 00    	mov    %ecx,0x2767c(%edx)
  100c64:	8d 84 82 80 76 02 00 	lea    0x27680(%edx,%eax,4),%eax
  100c6b:	c3                   	ret    
  100c6c:	8d 74 26 00          	lea    0x0(%esi,%eiz,1),%esi
        return NULL;
  100c70:	31 c0                	xor    %eax,%eax
}
  100c72:	c3                   	ret    
  100c73:	8d b4 26 00 00 00 00 	lea    0x0(%esi,%eiz,1),%esi
  100c7a:	8d b6 00 00 00 00    	lea    0x0(%esi),%esi

00100c80 <pmmap_init>:
{
  100c80:	55                   	push   %ebp
  100c81:	e8 63 05 00 00       	call   1011e9 <__x86.get_pc_thunk.bp>
  100c86:	81 c5 7a 03 01 00    	add    $0x1037a,%ebp
  100c8c:	57                   	push   %edi
  100c8d:	56                   	push   %esi
  100c8e:	53                   	push   %ebx
  100c8f:	83 ec 48             	sub    $0x48,%esp
    KERN_INFO("\n");
  100c92:	8d 85 cd 96 ff ff    	lea    -0x6933(%ebp),%eax
{
  100c98:	8b 74 24 5c          	mov    0x5c(%esp),%esi
    KERN_INFO("\n");
  100c9c:	89 eb                	mov    %ebp,%ebx
  100c9e:	50                   	push   %eax
  100c9f:	e8 1c 33 00 00       	call   103fc0 <debug_info>
    while ((uintptr_t) p - (uintptr_t) mbi->mmap_addr < mbi->mmap_length) {
  100ca4:	8b 5e 2c             	mov    0x2c(%esi),%ebx
    mboot_mmap_t *p = (mboot_mmap_t *) mbi->mmap_addr;
  100ca7:	8b 46 30             	mov    0x30(%esi),%eax
    SLIST_INIT(&pmmap_list);
  100caa:	c7 85 78 76 02 00 00 	movl   $0x0,0x27678(%ebp)
  100cb1:	00 00 00 
    SLIST_INIT(&pmmap_sublist[PMMAP_USABLE]);
  100cb4:	c7 85 68 76 02 00 00 	movl   $0x0,0x27668(%ebp)
  100cbb:	00 00 00 
    while ((uintptr_t) p - (uintptr_t) mbi->mmap_addr < mbi->mmap_length) {
  100cbe:	89 5c 24 24          	mov    %ebx,0x24(%esp)
  100cc2:	83 c4 10             	add    $0x10,%esp
    SLIST_INIT(&pmmap_sublist[PMMAP_RESV]);
  100cc5:	c7 85 6c 76 02 00 00 	movl   $0x0,0x2766c(%ebp)
  100ccc:	00 00 00 
    SLIST_INIT(&pmmap_sublist[PMMAP_ACPI]);
  100ccf:	c7 85 70 76 02 00 00 	movl   $0x0,0x27670(%ebp)
  100cd6:	00 00 00 
    SLIST_INIT(&pmmap_sublist[PMMAP_NVS]);
  100cd9:	c7 85 74 76 02 00 00 	movl   $0x0,0x27674(%ebp)
  100ce0:	00 00 00 
    while ((uintptr_t) p - (uintptr_t) mbi->mmap_addr < mbi->mmap_length) {
  100ce3:	85 db                	test   %ebx,%ebx
  100ce5:	0f 84 9f 02 00 00    	je     100f8a <pmmap_init+0x30a>
  100ceb:	ba e8 ff ff ff       	mov    $0xffffffe8,%edx
  100cf0:	31 ff                	xor    %edi,%edi
  100cf2:	c6 44 24 1f 00       	movb   $0x0,0x1f(%esp)
  100cf7:	8d 58 18             	lea    0x18(%eax),%ebx
  100cfa:	29 c2                	sub    %eax,%edx
  100cfc:	89 7c 24 10          	mov    %edi,0x10(%esp)
  100d00:	8b b5 7c 76 02 00    	mov    0x2767c(%ebp),%esi
  100d06:	c6 44 24 04 00       	movb   $0x0,0x4(%esp)
  100d0b:	89 54 24 18          	mov    %edx,0x18(%esp)
  100d0f:	90                   	nop
        uintptr_t start, end;
        uint32_t type;

        if (p->base_addr_high != 0)  /* ignore address above 4G */
  100d10:	8b 78 08             	mov    0x8(%eax),%edi
  100d13:	85 ff                	test   %edi,%edi
  100d15:	0f 85 b8 00 00 00    	jne    100dd3 <pmmap_init+0x153>
            goto next;
        else
            start = p->base_addr_low;

        if (p->length_high != 0 || p->length_low >= 0xffffffff - start)
  100d1b:	8b 48 10             	mov    0x10(%eax),%ecx
            start = p->base_addr_low;
  100d1e:	8b 50 04             	mov    0x4(%eax),%edx
            end = 0xffffffff;
  100d21:	c7 04 24 ff ff ff ff 	movl   $0xffffffff,(%esp)
        if (p->length_high != 0 || p->length_low >= 0xffffffff - start)
  100d28:	85 c9                	test   %ecx,%ecx
  100d2a:	75 13                	jne    100d3f <pmmap_init+0xbf>
        else
            end = start + p->length_low;
  100d2c:	8b 78 0c             	mov    0xc(%eax),%edi
  100d2f:	89 d1                	mov    %edx,%ecx
  100d31:	f7 d1                	not    %ecx
  100d33:	01 d7                	add    %edx,%edi
  100d35:	39 48 0c             	cmp    %ecx,0xc(%eax)
  100d38:	0f 43 3c 24          	cmovae (%esp),%edi
  100d3c:	89 3c 24             	mov    %edi,(%esp)

        type = p->type;
  100d3f:	8b 78 14             	mov    0x14(%eax),%edi
    if (unlikely(pmmap_slots_next_free == 128))
  100d42:	81 fe 80 00 00 00    	cmp    $0x80,%esi
  100d48:	0f 84 b2 f2 ff ff    	je     100000 <pmmap_init.cold>
    return &pmmap_slots[pmmap_slots_next_free++];
  100d4e:	8d 46 01             	lea    0x1(%esi),%eax
  100d51:	89 44 24 04          	mov    %eax,0x4(%esp)
  100d55:	8d 04 b6             	lea    (%esi,%esi,4),%eax
  100d58:	c1 e0 02             	shl    $0x2,%eax
  100d5b:	8d 8c 05 80 76 02 00 	lea    0x27680(%ebp,%eax,1),%ecx
    free_slot->end = end;
  100d62:	8d 84 05 80 76 02 00 	lea    0x27680(%ebp,%eax,1),%eax
    return &pmmap_slots[pmmap_slots_next_free++];
  100d69:	89 4c 24 08          	mov    %ecx,0x8(%esp)
    free_slot->start = start;
  100d6d:	89 11                	mov    %edx,(%ecx)
    free_slot->end = end;
  100d6f:	8d 0d 80 76 02 00    	lea    0x27680,%ecx
  100d75:	89 4c 24 0c          	mov    %ecx,0xc(%esp)
  100d79:	8b 0c 24             	mov    (%esp),%ecx
    free_slot->type = type;
  100d7c:	89 78 08             	mov    %edi,0x8(%eax)
    free_slot->end = end;
  100d7f:	89 48 04             	mov    %ecx,0x4(%eax)
    SLIST_FOREACH(slot, &pmmap_list, next) {
  100d82:	8b 44 24 10          	mov    0x10(%esp),%eax
  100d86:	85 c0                	test   %eax,%eax
  100d88:	0f 84 22 02 00 00    	je     100fb0 <pmmap_init+0x330>
    last_slot = NULL;
  100d8e:	31 ff                	xor    %edi,%edi
  100d90:	eb 11                	jmp    100da3 <pmmap_init+0x123>
  100d92:	8d b6 00 00 00 00    	lea    0x0(%esi),%esi
    SLIST_FOREACH(slot, &pmmap_list, next) {
  100d98:	8b 48 0c             	mov    0xc(%eax),%ecx
  100d9b:	89 c7                	mov    %eax,%edi
  100d9d:	85 c9                	test   %ecx,%ecx
  100d9f:	74 13                	je     100db4 <pmmap_init+0x134>
  100da1:	89 c8                	mov    %ecx,%eax
        if (start < slot->start)
  100da3:	3b 10                	cmp    (%eax),%edx
  100da5:	73 f1                	jae    100d98 <pmmap_init+0x118>
    if (last_slot == NULL) {
  100da7:	85 ff                	test   %edi,%edi
  100da9:	0f 84 01 02 00 00    	je     100fb0 <pmmap_init+0x330>
        SLIST_INSERT_AFTER(last_slot, free_slot, next);
  100daf:	8b 4f 0c             	mov    0xc(%edi),%ecx
  100db2:	89 f8                	mov    %edi,%eax
  100db4:	8d 14 b6             	lea    (%esi,%esi,4),%edx
  100db7:	8b 74 24 0c          	mov    0xc(%esp),%esi
  100dbb:	8d 54 95 00          	lea    0x0(%ebp,%edx,4),%edx
  100dbf:	89 4c 16 0c          	mov    %ecx,0xc(%esi,%edx,1)
  100dc3:	8b 74 24 08          	mov    0x8(%esp),%esi
  100dc7:	89 70 0c             	mov    %esi,0xc(%eax)
    return &pmmap_slots[pmmap_slots_next_free++];
  100dca:	8b 74 24 04          	mov    0x4(%esp),%esi
        SLIST_INSERT_AFTER(last_slot, free_slot, next);
  100dce:	c6 44 24 04 01       	movb   $0x1,0x4(%esp)
    while ((uintptr_t) p - (uintptr_t) mbi->mmap_addr < mbi->mmap_length) {
  100dd3:	8b 7c 24 18          	mov    0x18(%esp),%edi

        pmmap_insert(start, end, type);

      next:
        p = (mboot_mmap_t *) (((uint32_t) p) + sizeof(mboot_mmap_t) /* p->size */);
  100dd7:	89 d8                	mov    %ebx,%eax
    while ((uintptr_t) p - (uintptr_t) mbi->mmap_addr < mbi->mmap_length) {
  100dd9:	83 c3 18             	add    $0x18,%ebx
  100ddc:	8d 14 1f             	lea    (%edi,%ebx,1),%edx
  100ddf:	39 54 24 14          	cmp    %edx,0x14(%esp)
  100de3:	0f 87 27 ff ff ff    	ja     100d10 <pmmap_init+0x90>
  100de9:	80 7c 24 1f 00       	cmpb   $0x0,0x1f(%esp)
  100dee:	8b 7c 24 10          	mov    0x10(%esp),%edi
  100df2:	0f 84 48 02 00 00    	je     101040 <pmmap_init+0x3c0>
  100df8:	80 7c 24 04 00       	cmpb   $0x0,0x4(%esp)
  100dfd:	89 bd 78 76 02 00    	mov    %edi,0x27678(%ebp)
  100e03:	0f 85 44 02 00 00    	jne    10104d <pmmap_init+0x3cd>
    struct pmmap *last_slot[4] = { NULL, NULL, NULL, NULL };
  100e09:	c7 44 24 20 00 00 00 	movl   $0x0,0x20(%esp)
  100e10:	00 
  100e11:	c7 44 24 24 00 00 00 	movl   $0x0,0x24(%esp)
  100e18:	00 
  100e19:	c7 44 24 28 00 00 00 	movl   $0x0,0x28(%esp)
  100e20:	00 
  100e21:	c7 44 24 2c 00 00 00 	movl   $0x0,0x2c(%esp)
  100e28:	00 
    SLIST_FOREACH(slot, &pmmap_list, next) {
  100e29:	85 ff                	test   %edi,%edi
  100e2b:	0f 84 59 01 00 00    	je     100f8a <pmmap_init+0x30a>
        if ((next_slot = SLIST_NEXT(slot, next)) == NULL)
  100e31:	8b 47 0c             	mov    0xc(%edi),%eax
  100e34:	85 c0                	test   %eax,%eax
  100e36:	74 2a                	je     100e62 <pmmap_init+0x1e2>
  100e38:	8d b4 26 00 00 00 00 	lea    0x0(%esi,%eiz,1),%esi
  100e3f:	90                   	nop
        if (slot->start <= next_slot->start &&
  100e40:	8b 10                	mov    (%eax),%edx
  100e42:	39 17                	cmp    %edx,(%edi)
  100e44:	77 13                	ja     100e59 <pmmap_init+0x1d9>
            slot->end >= next_slot->start &&
  100e46:	8b 4f 04             	mov    0x4(%edi),%ecx
        if (slot->start <= next_slot->start &&
  100e49:	39 ca                	cmp    %ecx,%edx
  100e4b:	77 0c                	ja     100e59 <pmmap_init+0x1d9>
            slot->end >= next_slot->start &&
  100e4d:	8b 58 08             	mov    0x8(%eax),%ebx
  100e50:	39 5f 08             	cmp    %ebx,0x8(%edi)
  100e53:	0f 84 b2 01 00 00    	je     10100b <pmmap_init+0x38b>
    while ((uintptr_t) p - (uintptr_t) mbi->mmap_addr < mbi->mmap_length) {
  100e59:	89 c7                	mov    %eax,%edi
        if ((next_slot = SLIST_NEXT(slot, next)) == NULL)
  100e5b:	8b 47 0c             	mov    0xc(%edi),%eax
  100e5e:	85 c0                	test   %eax,%eax
  100e60:	75 de                	jne    100e40 <pmmap_init+0x1c0>
    SLIST_FOREACH(slot, &pmmap_list, next) {
  100e62:	8b b5 78 76 02 00    	mov    0x27678(%ebp),%esi
  100e68:	85 f6                	test   %esi,%esi
  100e6a:	0f 84 1a 01 00 00    	je     100f8a <pmmap_init+0x30a>
            SLIST_INSERT_HEAD(&pmmap_sublist[sublist_nr], slot, type_next);
  100e70:	8d bd 68 76 02 00    	lea    0x27668(%ebp),%edi
  100e76:	eb 1c                	jmp    100e94 <pmmap_init+0x214>
  100e78:	8d b4 26 00 00 00 00 	lea    0x0(%esi,%eiz,1),%esi
  100e7f:	90                   	nop
            SLIST_INSERT_AFTER(last_slot[sublist_nr], slot, type_next);
  100e80:	8b 4a 10             	mov    0x10(%edx),%ecx
        last_slot[sublist_nr] = slot;
  100e83:	89 74 84 20          	mov    %esi,0x20(%esp,%eax,4)
            SLIST_INSERT_AFTER(last_slot[sublist_nr], slot, type_next);
  100e87:	89 4e 10             	mov    %ecx,0x10(%esi)
  100e8a:	89 72 10             	mov    %esi,0x10(%edx)
    SLIST_FOREACH(slot, &pmmap_list, next) {
  100e8d:	8b 76 0c             	mov    0xc(%esi),%esi
  100e90:	85 f6                	test   %esi,%esi
  100e92:	74 35                	je     100ec9 <pmmap_init+0x249>
        sublist_nr = PMMAP_SUBLIST_NR(slot->type);
  100e94:	8b 56 08             	mov    0x8(%esi),%edx
  100e97:	31 c0                	xor    %eax,%eax
  100e99:	83 fa 01             	cmp    $0x1,%edx
  100e9c:	74 0f                	je     100ead <pmmap_init+0x22d>
  100e9e:	8d 42 fe             	lea    -0x2(%edx),%eax
  100ea1:	83 f8 02             	cmp    $0x2,%eax
  100ea4:	0f 87 36 01 00 00    	ja     100fe0 <pmmap_init+0x360>
  100eaa:	8d 42 ff             	lea    -0x1(%edx),%eax
        if (last_slot[sublist_nr] != NULL)
  100ead:	8b 54 84 20          	mov    0x20(%esp,%eax,4),%edx
  100eb1:	85 d2                	test   %edx,%edx
  100eb3:	75 cb                	jne    100e80 <pmmap_init+0x200>
            SLIST_INSERT_HEAD(&pmmap_sublist[sublist_nr], slot, type_next);
  100eb5:	8b 14 87             	mov    (%edi,%eax,4),%edx
        last_slot[sublist_nr] = slot;
  100eb8:	89 74 84 20          	mov    %esi,0x20(%esp,%eax,4)
            SLIST_INSERT_HEAD(&pmmap_sublist[sublist_nr], slot, type_next);
  100ebc:	89 34 87             	mov    %esi,(%edi,%eax,4)
  100ebf:	89 56 10             	mov    %edx,0x10(%esi)
    SLIST_FOREACH(slot, &pmmap_list, next) {
  100ec2:	8b 76 0c             	mov    0xc(%esi),%esi
  100ec5:	85 f6                	test   %esi,%esi
  100ec7:	75 cb                	jne    100e94 <pmmap_init+0x214>
    if (last_slot[PMMAP_USABLE] != NULL)
  100ec9:	8b 44 24 20          	mov    0x20(%esp),%eax
  100ecd:	85 c0                	test   %eax,%eax
  100ecf:	74 09                	je     100eda <pmmap_init+0x25a>
        max_usable_memory = last_slot[PMMAP_USABLE]->end;
  100ed1:	8b 40 04             	mov    0x4(%eax),%eax
  100ed4:	89 85 64 76 02 00    	mov    %eax,0x27664(%ebp)
    SLIST_FOREACH(slot, &pmmap_list, next) {
  100eda:	8b bd 78 76 02 00    	mov    0x27678(%ebp),%edi
  100ee0:	85 ff                	test   %edi,%edi
  100ee2:	0f 84 a2 00 00 00    	je     100f8a <pmmap_init+0x30a>
        KERN_INFO("BIOS-e820: 0x%08x - 0x%08x (%s)\n",
  100ee8:	8d 85 77 83 ff ff    	lea    -0x7c89(%ebp),%eax
  100eee:	8d b5 e4 83 ff ff    	lea    -0x7c1c(%ebp),%esi
  100ef4:	89 04 24             	mov    %eax,(%esp)
  100ef7:	8d 85 8f 83 ff ff    	lea    -0x7c71(%ebp),%eax
  100efd:	89 44 24 04          	mov    %eax,0x4(%esp)
  100f01:	8d b4 26 00 00 00 00 	lea    0x0(%esi,%eiz,1),%esi
  100f08:	8b 57 08             	mov    0x8(%edi),%edx
  100f0b:	8b 04 24             	mov    (%esp),%eax
  100f0e:	83 fa 01             	cmp    $0x1,%edx
  100f11:	74 26                	je     100f39 <pmmap_init+0x2b9>
  100f13:	8b 44 24 04          	mov    0x4(%esp),%eax
  100f17:	83 fa 03             	cmp    $0x3,%edx
  100f1a:	74 1d                	je     100f39 <pmmap_init+0x2b9>
  100f1c:	8d 85 99 83 ff ff    	lea    -0x7c67(%ebp),%eax
  100f22:	83 fa 04             	cmp    $0x4,%edx
  100f25:	74 12                	je     100f39 <pmmap_init+0x2b9>
  100f27:	83 fa 02             	cmp    $0x2,%edx
  100f2a:	8d 85 7e 83 ff ff    	lea    -0x7c82(%ebp),%eax
  100f30:	8d 95 86 83 ff ff    	lea    -0x7c7a(%ebp),%edx
  100f36:	0f 44 c2             	cmove  %edx,%eax
  100f39:	8b 0f                	mov    (%edi),%ecx
  100f3b:	8b 57 04             	mov    0x4(%edi),%edx
  100f3e:	39 d1                	cmp    %edx,%ecx
  100f40:	74 0a                	je     100f4c <pmmap_init+0x2cc>
  100f42:	31 db                	xor    %ebx,%ebx
  100f44:	83 fa ff             	cmp    $0xffffffff,%edx
  100f47:	0f 95 c3             	setne  %bl
  100f4a:	29 da                	sub    %ebx,%edx
  100f4c:	50                   	push   %eax
  100f4d:	89 eb                	mov    %ebp,%ebx
  100f4f:	52                   	push   %edx
  100f50:	51                   	push   %ecx
  100f51:	56                   	push   %esi
  100f52:	e8 69 30 00 00       	call   103fc0 <debug_info>
    SLIST_FOREACH(slot, &pmmap_list, next) {
  100f57:	8b 7f 0c             	mov    0xc(%edi),%edi
  100f5a:	83 c4 10             	add    $0x10,%esp
  100f5d:	85 ff                	test   %edi,%edi
  100f5f:	75 a7                	jne    100f08 <pmmap_init+0x288>
    pmmap_merge();
    pmmap_dump();

    /* count the number of pmmap entries */
    struct pmmap *slot;
    SLIST_FOREACH(slot, &pmmap_list, next) {
  100f61:	8b 95 78 76 02 00    	mov    0x27678(%ebp),%edx
  100f67:	85 d2                	test   %edx,%edx
  100f69:	74 1f                	je     100f8a <pmmap_init+0x30a>
  100f6b:	8b 85 60 76 02 00    	mov    0x27660(%ebp),%eax
  100f71:	83 c0 01             	add    $0x1,%eax
  100f74:	8d 74 26 00          	lea    0x0(%esi,%eiz,1),%esi
  100f78:	8b 52 0c             	mov    0xc(%edx),%edx
        pmmap_nentries++;
  100f7b:	89 c1                	mov    %eax,%ecx
    SLIST_FOREACH(slot, &pmmap_list, next) {
  100f7d:	83 c0 01             	add    $0x1,%eax
  100f80:	85 d2                	test   %edx,%edx
  100f82:	75 f4                	jne    100f78 <pmmap_init+0x2f8>
  100f84:	89 8d 60 76 02 00    	mov    %ecx,0x27660(%ebp)
    }

    /* Calculate the maximum page number */
    mem_npages = rounddown(max_usable_memory, PAGESIZE) / PAGESIZE;
  100f8a:	83 ec 08             	sub    $0x8,%esp
  100f8d:	89 eb                	mov    %ebp,%ebx
  100f8f:	68 00 10 00 00       	push   $0x1000
  100f94:	ff b5 64 76 02 00    	push   0x27664(%ebp)
  100f9a:	e8 51 3c 00 00       	call   104bf0 <rounddown>
}
  100f9f:	83 c4 4c             	add    $0x4c,%esp
  100fa2:	5b                   	pop    %ebx
  100fa3:	5e                   	pop    %esi
  100fa4:	5f                   	pop    %edi
  100fa5:	5d                   	pop    %ebp
  100fa6:	c3                   	ret    
  100fa7:	8d b4 26 00 00 00 00 	lea    0x0(%esi,%eiz,1),%esi
  100fae:	66 90                	xchg   %ax,%ax
        SLIST_INSERT_HEAD(&pmmap_list, free_slot, next);
  100fb0:	8b 7c 24 10          	mov    0x10(%esp),%edi
  100fb4:	8d 04 b6             	lea    (%esi,%esi,4),%eax
  100fb7:	8b 74 24 0c          	mov    0xc(%esp),%esi
  100fbb:	c6 44 24 1f 01       	movb   $0x1,0x1f(%esp)
  100fc0:	8d 44 85 00          	lea    0x0(%ebp,%eax,4),%eax
  100fc4:	89 7c 06 0c          	mov    %edi,0xc(%esi,%eax,1)
  100fc8:	8b 44 24 08          	mov    0x8(%esp),%eax
    return &pmmap_slots[pmmap_slots_next_free++];
  100fcc:	8b 74 24 04          	mov    0x4(%esp),%esi
  100fd0:	c6 44 24 04 01       	movb   $0x1,0x4(%esp)
        SLIST_INSERT_HEAD(&pmmap_list, free_slot, next);
  100fd5:	89 44 24 10          	mov    %eax,0x10(%esp)
  100fd9:	e9 f5 fd ff ff       	jmp    100dd3 <pmmap_init+0x153>
  100fde:	66 90                	xchg   %ax,%ax
        KERN_ASSERT(sublist_nr != -1);
  100fe0:	8d 85 d0 83 ff ff    	lea    -0x7c30(%ebp),%eax
  100fe6:	89 eb                	mov    %ebp,%ebx
  100fe8:	50                   	push   %eax
  100fe9:	8d 85 bf 82 ff ff    	lea    -0x7d41(%ebp),%eax
  100fef:	50                   	push   %eax
  100ff0:	8d 85 bf 83 ff ff    	lea    -0x7c41(%ebp),%eax
  100ff6:	6a 6b                	push   $0x6b
  100ff8:	50                   	push   %eax
  100ff9:	e8 32 30 00 00       	call   104030 <debug_panic>
  100ffe:	83 c4 10             	add    $0x10,%esp
        sublist_nr = PMMAP_SUBLIST_NR(slot->type);
  101001:	b8 ff ff ff ff       	mov    $0xffffffff,%eax
  101006:	e9 a2 fe ff ff       	jmp    100ead <pmmap_init+0x22d>
            slot->end = max(slot->end, next_slot->end);
  10100b:	83 ec 08             	sub    $0x8,%esp
  10100e:	ff 70 04             	push   0x4(%eax)
  101011:	89 eb                	mov    %ebp,%ebx
  101013:	51                   	push   %ecx
  101014:	e8 b7 3b 00 00       	call   104bd0 <max>
    SLIST_FOREACH(slot, &pmmap_list, next) {
  101019:	83 c4 10             	add    $0x10,%esp
            slot->end = max(slot->end, next_slot->end);
  10101c:	89 47 04             	mov    %eax,0x4(%edi)
            SLIST_REMOVE_AFTER(slot, next);
  10101f:	8b 47 0c             	mov    0xc(%edi),%eax
  101022:	8b 40 0c             	mov    0xc(%eax),%eax
  101025:	89 47 0c             	mov    %eax,0xc(%edi)
    SLIST_FOREACH(slot, &pmmap_list, next) {
  101028:	85 c0                	test   %eax,%eax
  10102a:	0f 84 32 fe ff ff    	je     100e62 <pmmap_init+0x1e2>
    while ((uintptr_t) p - (uintptr_t) mbi->mmap_addr < mbi->mmap_length) {
  101030:	89 c7                	mov    %eax,%edi
  101032:	e9 24 fe ff ff       	jmp    100e5b <pmmap_init+0x1db>
  101037:	8d b4 26 00 00 00 00 	lea    0x0(%esi,%eiz,1),%esi
  10103e:	66 90                	xchg   %ax,%ax
  101040:	31 ff                	xor    %edi,%edi
  101042:	80 7c 24 04 00       	cmpb   $0x0,0x4(%esp)
  101047:	0f 84 3d ff ff ff    	je     100f8a <pmmap_init+0x30a>
  10104d:	89 b5 7c 76 02 00    	mov    %esi,0x2767c(%ebp)
  101053:	e9 b1 fd ff ff       	jmp    100e09 <pmmap_init+0x189>
  101058:	8d b4 26 00 00 00 00 	lea    0x0(%esi,%eiz,1),%esi
  10105f:	90                   	nop

00101060 <get_size>:

int get_size(void)
{
    return pmmap_nentries;
  101060:	e8 1c f3 ff ff       	call   100381 <__x86.get_pc_thunk.ax>
  101065:	05 9b ff 00 00       	add    $0xff9b,%eax
  10106a:	8b 80 60 76 02 00    	mov    0x27660(%eax),%eax
}
  101070:	c3                   	ret    
  101071:	8d b4 26 00 00 00 00 	lea    0x0(%esi,%eiz,1),%esi
  101078:	8d b4 26 00 00 00 00 	lea    0x0(%esi,%eiz,1),%esi
  10107f:	90                   	nop

00101080 <get_mms>:

uint32_t get_mms(int idx)
{
  101080:	53                   	push   %ebx
  101081:	8b 4c 24 08          	mov    0x8(%esp),%ecx
  101085:	e8 ff f2 ff ff       	call   100389 <__x86.get_pc_thunk.bx>
  10108a:	81 c3 76 ff 00 00    	add    $0xff76,%ebx
    int i = 0;
    struct pmmap *slot = NULL;

    SLIST_FOREACH(slot, &pmmap_list, next) {
  101090:	8b 83 78 76 02 00    	mov    0x27678(%ebx),%eax
  101096:	85 c0                	test   %eax,%eax
  101098:	74 1c                	je     1010b6 <get_mms+0x36>
    int i = 0;
  10109a:	31 d2                	xor    %edx,%edx
        if (i == idx)
  10109c:	85 c9                	test   %ecx,%ecx
  10109e:	75 0c                	jne    1010ac <get_mms+0x2c>
  1010a0:	eb 1e                	jmp    1010c0 <get_mms+0x40>
  1010a2:	8d b6 00 00 00 00    	lea    0x0(%esi),%esi
  1010a8:	39 d1                	cmp    %edx,%ecx
  1010aa:	74 14                	je     1010c0 <get_mms+0x40>
    SLIST_FOREACH(slot, &pmmap_list, next) {
  1010ac:	8b 40 0c             	mov    0xc(%eax),%eax
            break;
        i++;
  1010af:	83 c2 01             	add    $0x1,%edx
    SLIST_FOREACH(slot, &pmmap_list, next) {
  1010b2:	85 c0                	test   %eax,%eax
  1010b4:	75 f2                	jne    1010a8 <get_mms+0x28>
    }

    if (slot == NULL || i == pmmap_nentries)
        return 0;
  1010b6:	31 c9                	xor    %ecx,%ecx

    return slot->start;
}
  1010b8:	89 c8                	mov    %ecx,%eax
  1010ba:	5b                   	pop    %ebx
  1010bb:	c3                   	ret    
  1010bc:	8d 74 26 00          	lea    0x0(%esi,%eiz,1),%esi
        return 0;
  1010c0:	31 c9                	xor    %ecx,%ecx
    if (slot == NULL || i == pmmap_nentries)
  1010c2:	39 93 60 76 02 00    	cmp    %edx,0x27660(%ebx)
  1010c8:	74 ee                	je     1010b8 <get_mms+0x38>
    return slot->start;
  1010ca:	8b 08                	mov    (%eax),%ecx
}
  1010cc:	5b                   	pop    %ebx
  1010cd:	89 c8                	mov    %ecx,%eax
  1010cf:	c3                   	ret    

001010d0 <get_mml>:

uint32_t get_mml(int idx)
{
  1010d0:	53                   	push   %ebx
  1010d1:	8b 44 24 08          	mov    0x8(%esp),%eax
  1010d5:	e8 af f2 ff ff       	call   100389 <__x86.get_pc_thunk.bx>
  1010da:	81 c3 26 ff 00 00    	add    $0xff26,%ebx
    int i = 0;
    struct pmmap *slot = NULL;

    SLIST_FOREACH(slot, &pmmap_list, next) {
  1010e0:	8b 93 78 76 02 00    	mov    0x27678(%ebx),%edx
  1010e6:	85 d2                	test   %edx,%edx
  1010e8:	74 1c                	je     101106 <get_mml+0x36>
    int i = 0;
  1010ea:	31 c9                	xor    %ecx,%ecx
        if (i == idx)
  1010ec:	85 c0                	test   %eax,%eax
  1010ee:	75 0c                	jne    1010fc <get_mml+0x2c>
  1010f0:	eb 1e                	jmp    101110 <get_mml+0x40>
  1010f2:	8d b6 00 00 00 00    	lea    0x0(%esi),%esi
  1010f8:	39 c8                	cmp    %ecx,%eax
  1010fa:	74 14                	je     101110 <get_mml+0x40>
    SLIST_FOREACH(slot, &pmmap_list, next) {
  1010fc:	8b 52 0c             	mov    0xc(%edx),%edx
            break;
        i++;
  1010ff:	83 c1 01             	add    $0x1,%ecx
    SLIST_FOREACH(slot, &pmmap_list, next) {
  101102:	85 d2                	test   %edx,%edx
  101104:	75 f2                	jne    1010f8 <get_mml+0x28>
    }

    if (slot == NULL || i == pmmap_nentries)
        return 0;
  101106:	31 c0                	xor    %eax,%eax

    return slot->end - slot->start;
}
  101108:	5b                   	pop    %ebx
  101109:	c3                   	ret    
  10110a:	8d b6 00 00 00 00    	lea    0x0(%esi),%esi
        return 0;
  101110:	31 c0                	xor    %eax,%eax
    if (slot == NULL || i == pmmap_nentries)
  101112:	39 8b 60 76 02 00    	cmp    %ecx,0x27660(%ebx)
  101118:	74 ee                	je     101108 <get_mml+0x38>
    return slot->end - slot->start;
  10111a:	8b 42 04             	mov    0x4(%edx),%eax
}
  10111d:	5b                   	pop    %ebx
    return slot->end - slot->start;
  10111e:	2b 02                	sub    (%edx),%eax
}
  101120:	c3                   	ret    
  101121:	8d b4 26 00 00 00 00 	lea    0x0(%esi,%eiz,1),%esi
  101128:	8d b4 26 00 00 00 00 	lea    0x0(%esi,%eiz,1),%esi
  10112f:	90                   	nop

00101130 <is_usable>:

int is_usable(int idx)
{
  101130:	53                   	push   %ebx
  101131:	8b 4c 24 08          	mov    0x8(%esp),%ecx
  101135:	e8 4f f2 ff ff       	call   100389 <__x86.get_pc_thunk.bx>
  10113a:	81 c3 c6 fe 00 00    	add    $0xfec6,%ebx
    int i = 0;
    struct pmmap *slot = NULL;

    SLIST_FOREACH(slot, &pmmap_list, next) {
  101140:	8b 83 78 76 02 00    	mov    0x27678(%ebx),%eax
  101146:	85 c0                	test   %eax,%eax
  101148:	74 1c                	je     101166 <is_usable+0x36>
    int i = 0;
  10114a:	31 d2                	xor    %edx,%edx
        if (i == idx)
  10114c:	85 c9                	test   %ecx,%ecx
  10114e:	75 0c                	jne    10115c <is_usable+0x2c>
  101150:	eb 1e                	jmp    101170 <is_usable+0x40>
  101152:	8d b6 00 00 00 00    	lea    0x0(%esi),%esi
  101158:	39 d1                	cmp    %edx,%ecx
  10115a:	74 14                	je     101170 <is_usable+0x40>
    SLIST_FOREACH(slot, &pmmap_list, next) {
  10115c:	8b 40 0c             	mov    0xc(%eax),%eax
            break;
        i++;
  10115f:	83 c2 01             	add    $0x1,%edx
    SLIST_FOREACH(slot, &pmmap_list, next) {
  101162:	85 c0                	test   %eax,%eax
  101164:	75 f2                	jne    101158 <is_usable+0x28>
    }

    if (slot == NULL || i == pmmap_nentries)
        return 0;
  101166:	31 c9                	xor    %ecx,%ecx

    return slot->type == MEM_RAM;
}
  101168:	89 c8                	mov    %ecx,%eax
  10116a:	5b                   	pop    %ebx
  10116b:	c3                   	ret    
  10116c:	8d 74 26 00          	lea    0x0(%esi,%eiz,1),%esi
        return 0;
  101170:	31 c9                	xor    %ecx,%ecx
    if (slot == NULL || i == pmmap_nentries)
  101172:	39 93 60 76 02 00    	cmp    %edx,0x27660(%ebx)
  101178:	74 ee                	je     101168 <is_usable+0x38>
    return slot->type == MEM_RAM;
  10117a:	31 c9                	xor    %ecx,%ecx
  10117c:	83 78 08 01          	cmpl   $0x1,0x8(%eax)
}
  101180:	5b                   	pop    %ebx
    return slot->type == MEM_RAM;
  101181:	0f 94 c1             	sete   %cl
}
  101184:	89 c8                	mov    %ecx,%eax
  101186:	c3                   	ret    
  101187:	8d b4 26 00 00 00 00 	lea    0x0(%esi,%eiz,1),%esi
  10118e:	66 90                	xchg   %ax,%ax

00101190 <set_cr3>:

void set_cr3(unsigned int **pdir)
{
  101190:	53                   	push   %ebx
  101191:	e8 f3 f1 ff ff       	call   100389 <__x86.get_pc_thunk.bx>
  101196:	81 c3 6a fe 00 00    	add    $0xfe6a,%ebx
  10119c:	83 ec 14             	sub    $0x14,%esp
    lcr3((uint32_t) pdir);
  10119f:	ff 74 24 1c          	push   0x1c(%esp)
  1011a3:	e8 78 3c 00 00       	call   104e20 <lcr3>
}
  1011a8:	83 c4 18             	add    $0x18,%esp
  1011ab:	5b                   	pop    %ebx
  1011ac:	c3                   	ret    
  1011ad:	8d 76 00             	lea    0x0(%esi),%esi

001011b0 <enable_paging>:

void enable_paging(void)
{
  1011b0:	53                   	push   %ebx
  1011b1:	e8 d3 f1 ff ff       	call   100389 <__x86.get_pc_thunk.bx>
  1011b6:	81 c3 4a fe 00 00    	add    $0xfe4a,%ebx
  1011bc:	83 ec 08             	sub    $0x8,%esp
    /* enable global pages (Sec 4.10.2.4, Intel ASDM Vol3) */
    uint32_t cr4 = rcr4();
  1011bf:	e8 7c 3c 00 00       	call   104e40 <rcr4>
    cr4 |= CR4_PGE;
    lcr4(cr4);
  1011c4:	83 ec 0c             	sub    $0xc,%esp
    cr4 |= CR4_PGE;
  1011c7:	0c 80                	or     $0x80,%al
    lcr4(cr4);
  1011c9:	50                   	push   %eax
  1011ca:	e8 61 3c 00 00       	call   104e30 <lcr4>

    /* turn on paging */
    uint32_t cr0 = rcr0();
  1011cf:	e8 2c 3c 00 00       	call   104e00 <rcr0>
    cr0 |= CR0_PE | CR0_PG | CR0_AM | CR0_WP | CR0_NE | CR0_MP;
    cr0 &= ~(CR0_EM | CR0_TS);
  1011d4:	83 e0 f3             	and    $0xfffffff3,%eax
  1011d7:	0d 23 00 05 80       	or     $0x80050023,%eax
    lcr0(cr0);
  1011dc:	89 04 24             	mov    %eax,(%esp)
  1011df:	e8 0c 3c 00 00       	call   104df0 <lcr0>
}
  1011e4:	83 c4 18             	add    $0x18,%esp
  1011e7:	5b                   	pop    %ebx
  1011e8:	c3                   	ret    

001011e9 <__x86.get_pc_thunk.bp>:
  1011e9:	8b 2c 24             	mov    (%esp),%ebp
  1011ec:	c3                   	ret    
  1011ed:	66 90                	xchg   %ax,%ax
  1011ef:	90                   	nop

001011f0 <intr_init>:
{
    asm volatile ("lidt %0" :: "m" (idt_pd));
}

void intr_init(void)
{
  1011f0:	55                   	push   %ebp
  1011f1:	57                   	push   %edi
  1011f2:	56                   	push   %esi
  1011f3:	53                   	push   %ebx
  1011f4:	e8 90 f1 ff ff       	call   100389 <__x86.get_pc_thunk.bx>
  1011f9:	81 c3 07 fe 00 00    	add    $0xfe07,%ebx
  1011ff:	83 ec 38             	sub    $0x38,%esp
    uint32_t dummy, edx;

    cpuid(0x00000001, &dummy, &dummy, &dummy, &edx);
  101202:	8d 44 24 28          	lea    0x28(%esp),%eax
  101206:	50                   	push   %eax
  101207:	8d 44 24 28          	lea    0x28(%esp),%eax
  10120b:	50                   	push   %eax
  10120c:	50                   	push   %eax
  10120d:	50                   	push   %eax
  10120e:	6a 01                	push   $0x1
  101210:	e8 0b 3b 00 00       	call   104d20 <cpuid>
    using_apic = (edx & CPUID_FEATURE_APIC) ? TRUE : FALSE;
  101215:	8b 44 24 3c          	mov    0x3c(%esp),%eax
    KERN_ASSERT(using_apic == TRUE);
  101219:	83 c4 20             	add    $0x20,%esp
    using_apic = (edx & CPUID_FEATURE_APIC) ? TRUE : FALSE;
  10121c:	c1 e8 09             	shr    $0x9,%eax
  10121f:	83 e0 01             	and    $0x1,%eax
  101222:	88 83 80 88 02 00    	mov    %al,0x28880(%ebx)
    KERN_ASSERT(using_apic == TRUE);
  101228:	0f b6 83 80 88 02 00 	movzbl 0x28880(%ebx),%eax
  10122f:	3c 01                	cmp    $0x1,%al
  101231:	74 1f                	je     101252 <intr_init+0x62>
  101233:	8d 83 05 84 ff ff    	lea    -0x7bfb(%ebx),%eax
  101239:	50                   	push   %eax
  10123a:	8d 83 bf 82 ff ff    	lea    -0x7d41(%ebx),%eax
  101240:	50                   	push   %eax
  101241:	8d 83 18 84 ff ff    	lea    -0x7be8(%ebx),%eax
  101247:	6a 63                	push   $0x63
  101249:	50                   	push   %eax
  10124a:	e8 e1 2d 00 00       	call   104030 <debug_panic>
  10124f:	83 c4 10             	add    $0x10,%esp

    if (pcpu_onboot())
  101252:	e8 29 28 00 00       	call   103a80 <pcpu_onboot>
  101257:	84 c0                	test   %al,%al
  101259:	75 25                	jne    101280 <intr_init+0x90>
            intr_init_idt();
        }
    }

    /* all processors */
    if (using_apic)
  10125b:	0f b6 83 80 88 02 00 	movzbl 0x28880(%ebx),%eax
  101262:	84 c0                	test   %al,%al
  101264:	0f 85 46 05 00 00    	jne    1017b0 <intr_init+0x5c0>
    asm volatile ("lidt %0" :: "m" (idt_pd));
  10126a:	0f 01 9b 20 03 00 00 	lidtl  0x320(%ebx)
    {
        lapic_init();
    }
    intr_install_idt();
}
  101271:	83 c4 2c             	add    $0x2c,%esp
  101274:	5b                   	pop    %ebx
  101275:	5e                   	pop    %esi
  101276:	5f                   	pop    %edi
  101277:	5d                   	pop    %ebp
  101278:	c3                   	ret    
  101279:	8d b4 26 00 00 00 00 	lea    0x0(%esi,%eiz,1),%esi
        pic_init();
  101280:	e8 3b 07 00 00       	call   1019c0 <pic_init>
        if (using_apic)
  101285:	0f b6 83 80 88 02 00 	movzbl 0x28880(%ebx),%eax
  10128c:	84 c0                	test   %al,%al
  10128e:	74 cb                	je     10125b <intr_init+0x6b>
            ioapic_init();
  101290:	e8 5b 18 00 00       	call   102af0 <ioapic_init>
        SETGATE(idt[i], 0, CPU_GDT_KCODE, &Xdefault, 0);
  101295:	c7 c0 0e 22 10 00    	mov    $0x10220e,%eax
  10129b:	8d 0d 80 80 02 00    	lea    0x28080,%ecx
  1012a1:	89 c6                	mov    %eax,%esi
  1012a3:	89 44 24 0c          	mov    %eax,0xc(%esp)
  1012a7:	89 c7                	mov    %eax,%edi
    for (i = 0; i < sizeof(idt) / sizeof(idt[0]); i++)
  1012a9:	31 c0                	xor    %eax,%eax
        SETGATE(idt[i], 0, CPU_GDT_KCODE, &Xdefault, 0);
  1012ab:	c1 ee 10             	shr    $0x10,%esi
  1012ae:	89 74 24 08          	mov    %esi,0x8(%esp)
  1012b2:	89 f5                	mov    %esi,%ebp
  1012b4:	8d b3 80 80 02 00    	lea    0x28080(%ebx),%esi
  1012ba:	8d b6 00 00 00 00    	lea    0x0(%esi),%esi
  1012c0:	8d 14 c5 00 00 00 00 	lea    0x0(,%eax,8),%edx
  1012c7:	66 89 3c c6          	mov    %di,(%esi,%eax,8)
    for (i = 0; i < sizeof(idt) / sizeof(idt[0]); i++)
  1012cb:	83 c0 01             	add    $0x1,%eax
        SETGATE(idt[i], 0, CPU_GDT_KCODE, &Xdefault, 0);
  1012ce:	c7 84 13 82 80 02 00 	movl   $0x8e000008,0x28082(%ebx,%edx,1)
  1012d5:	08 00 00 8e 
  1012d9:	01 da                	add    %ebx,%edx
  1012db:	66 89 6c 11 06       	mov    %bp,0x6(%ecx,%edx,1)
    for (i = 0; i < sizeof(idt) / sizeof(idt[0]); i++)
  1012e0:	3d 00 01 00 00       	cmp    $0x100,%eax
  1012e5:	75 d9                	jne    1012c0 <intr_init+0xd0>
    SETGATE(idt[T_DIVIDE],                  0, CPU_GDT_KCODE, &Xdivide,         0);
  1012e7:	c7 c0 00 21 10 00    	mov    $0x102100,%eax
    SETGATE(idt[T_FPERR],                   0, CPU_GDT_KCODE, &Xfperr,          0);
  1012ed:	ba 08 00 00 00       	mov    $0x8,%edx
    SETGATE(idt[T_DIVIDE],                  0, CPU_GDT_KCODE, &Xdivide,         0);
  1012f2:	c7 83 82 80 02 00 08 	movl   $0x8e000008,0x28082(%ebx)
  1012f9:	00 00 8e 
    SETGATE(idt[T_FPERR],                   0, CPU_GDT_KCODE, &Xfperr,          0);
  1012fc:	be 00 8e ff ff       	mov    $0xffff8e00,%esi
    SETGATE(idt[T_DEBUG],                   0, CPU_GDT_KCODE, &Xdebug,          0);
  101301:	c7 83 8a 80 02 00 08 	movl   $0x8e000008,0x2808a(%ebx)
  101308:	00 00 8e 
    SETGATE(idt[T_DIVIDE],                  0, CPU_GDT_KCODE, &Xdivide,         0);
  10130b:	66 89 04 19          	mov    %ax,(%ecx,%ebx,1)
  10130f:	c1 e8 10             	shr    $0x10,%eax
  101312:	66 89 44 19 06       	mov    %ax,0x6(%ecx,%ebx,1)
    SETGATE(idt[T_DEBUG],                   0, CPU_GDT_KCODE, &Xdebug,          0);
  101317:	c7 c0 0a 21 10 00    	mov    $0x10210a,%eax
    SETGATE(idt[T_NMI],                     0, CPU_GDT_KCODE, &Xnmi,            0);
  10131d:	c7 83 92 80 02 00 08 	movl   $0x8e000008,0x28092(%ebx)
  101324:	00 00 8e 
    SETGATE(idt[T_DEBUG],                   0, CPU_GDT_KCODE, &Xdebug,          0);
  101327:	66 89 44 19 08       	mov    %ax,0x8(%ecx,%ebx,1)
  10132c:	c1 e8 10             	shr    $0x10,%eax
  10132f:	66 89 44 19 0e       	mov    %ax,0xe(%ecx,%ebx,1)
    SETGATE(idt[T_NMI],                     0, CPU_GDT_KCODE, &Xnmi,            0);
  101334:	c7 c0 14 21 10 00    	mov    $0x102114,%eax
    SETGATE(idt[T_BRKPT],                   0, CPU_GDT_KCODE, &Xbrkpt,          3);
  10133a:	c7 83 9a 80 02 00 08 	movl   $0xee000008,0x2809a(%ebx)
  101341:	00 00 ee 
    SETGATE(idt[T_NMI],                     0, CPU_GDT_KCODE, &Xnmi,            0);
  101344:	66 89 44 19 10       	mov    %ax,0x10(%ecx,%ebx,1)
  101349:	c1 e8 10             	shr    $0x10,%eax
  10134c:	66 89 44 19 16       	mov    %ax,0x16(%ecx,%ebx,1)
    SETGATE(idt[T_BRKPT],                   0, CPU_GDT_KCODE, &Xbrkpt,          3);
  101351:	c7 c0 1e 21 10 00    	mov    $0x10211e,%eax
    SETGATE(idt[T_OFLOW],                   0, CPU_GDT_KCODE, &Xoflow,          3);
  101357:	c7 83 a2 80 02 00 08 	movl   $0xee000008,0x280a2(%ebx)
  10135e:	00 00 ee 
    SETGATE(idt[T_BRKPT],                   0, CPU_GDT_KCODE, &Xbrkpt,          3);
  101361:	66 89 44 19 18       	mov    %ax,0x18(%ecx,%ebx,1)
  101366:	c1 e8 10             	shr    $0x10,%eax
  101369:	66 89 44 19 1e       	mov    %ax,0x1e(%ecx,%ebx,1)
    SETGATE(idt[T_OFLOW],                   0, CPU_GDT_KCODE, &Xoflow,          3);
  10136e:	c7 c0 28 21 10 00    	mov    $0x102128,%eax
    SETGATE(idt[T_BOUND],                   0, CPU_GDT_KCODE, &Xbound,          0);
  101374:	c7 83 aa 80 02 00 08 	movl   $0x8e000008,0x280aa(%ebx)
  10137b:	00 00 8e 
    SETGATE(idt[T_OFLOW],                   0, CPU_GDT_KCODE, &Xoflow,          3);
  10137e:	66 89 44 19 20       	mov    %ax,0x20(%ecx,%ebx,1)
  101383:	c1 e8 10             	shr    $0x10,%eax
  101386:	66 89 44 19 26       	mov    %ax,0x26(%ecx,%ebx,1)
    SETGATE(idt[T_BOUND],                   0, CPU_GDT_KCODE, &Xbound,          0);
  10138b:	c7 c0 32 21 10 00    	mov    $0x102132,%eax
    SETGATE(idt[T_ILLOP],                   0, CPU_GDT_KCODE, &Xillop,          0);
  101391:	c7 83 b2 80 02 00 08 	movl   $0x8e000008,0x280b2(%ebx)
  101398:	00 00 8e 
    SETGATE(idt[T_BOUND],                   0, CPU_GDT_KCODE, &Xbound,          0);
  10139b:	66 89 44 19 28       	mov    %ax,0x28(%ecx,%ebx,1)
  1013a0:	c1 e8 10             	shr    $0x10,%eax
  1013a3:	66 89 44 19 2e       	mov    %ax,0x2e(%ecx,%ebx,1)
    SETGATE(idt[T_ILLOP],                   0, CPU_GDT_KCODE, &Xillop,          0);
  1013a8:	c7 c0 3c 21 10 00    	mov    $0x10213c,%eax
    SETGATE(idt[T_DEVICE],                  0, CPU_GDT_KCODE, &Xdevice,         0);
  1013ae:	c7 83 ba 80 02 00 08 	movl   $0x8e000008,0x280ba(%ebx)
  1013b5:	00 00 8e 
    SETGATE(idt[T_ILLOP],                   0, CPU_GDT_KCODE, &Xillop,          0);
  1013b8:	66 89 44 19 30       	mov    %ax,0x30(%ecx,%ebx,1)
  1013bd:	c1 e8 10             	shr    $0x10,%eax
  1013c0:	66 89 44 19 36       	mov    %ax,0x36(%ecx,%ebx,1)
    SETGATE(idt[T_DEVICE],                  0, CPU_GDT_KCODE, &Xdevice,         0);
  1013c5:	c7 c0 46 21 10 00    	mov    $0x102146,%eax
  1013cb:	66 89 44 19 38       	mov    %ax,0x38(%ecx,%ebx,1)
  1013d0:	c1 e8 10             	shr    $0x10,%eax
  1013d3:	66 89 44 19 3e       	mov    %ax,0x3e(%ecx,%ebx,1)
    SETGATE(idt[T_DBLFLT],                  0, CPU_GDT_KCODE, &Xdblflt,         0);
  1013d8:	c7 c0 50 21 10 00    	mov    $0x102150,%eax
    SETGATE(idt[T_FPERR],                   0, CPU_GDT_KCODE, &Xfperr,          0);
  1013de:	66 89 94 19 82 00 00 	mov    %dx,0x82(%ecx,%ebx,1)
  1013e5:	00 
    SETGATE(idt[T_DBLFLT],                  0, CPU_GDT_KCODE, &Xdblflt,         0);
  1013e6:	66 89 44 19 40       	mov    %ax,0x40(%ecx,%ebx,1)
  1013eb:	c1 e8 10             	shr    $0x10,%eax
  1013ee:	66 89 44 19 46       	mov    %ax,0x46(%ecx,%ebx,1)
    SETGATE(idt[T_TSS],                     0, CPU_GDT_KCODE, &Xtss,            0);
  1013f3:	c7 c0 62 21 10 00    	mov    $0x102162,%eax
    SETGATE(idt[T_DBLFLT],                  0, CPU_GDT_KCODE, &Xdblflt,         0);
  1013f9:	c7 83 c2 80 02 00 08 	movl   $0x8e000008,0x280c2(%ebx)
  101400:	00 00 8e 
    SETGATE(idt[T_TSS],                     0, CPU_GDT_KCODE, &Xtss,            0);
  101403:	66 89 44 19 50       	mov    %ax,0x50(%ecx,%ebx,1)
  101408:	c1 e8 10             	shr    $0x10,%eax
  10140b:	66 89 44 19 56       	mov    %ax,0x56(%ecx,%ebx,1)
    SETGATE(idt[T_SEGNP],                   0, CPU_GDT_KCODE, &Xsegnp,          0);
  101410:	c7 c0 6a 21 10 00    	mov    $0x10216a,%eax
    SETGATE(idt[T_TSS],                     0, CPU_GDT_KCODE, &Xtss,            0);
  101416:	c7 83 d2 80 02 00 08 	movl   $0x8e000008,0x280d2(%ebx)
  10141d:	00 00 8e 
    SETGATE(idt[T_SEGNP],                   0, CPU_GDT_KCODE, &Xsegnp,          0);
  101420:	66 89 44 19 58       	mov    %ax,0x58(%ecx,%ebx,1)
  101425:	c1 e8 10             	shr    $0x10,%eax
  101428:	66 89 44 19 5e       	mov    %ax,0x5e(%ecx,%ebx,1)
    SETGATE(idt[T_STACK],                   0, CPU_GDT_KCODE, &Xstack,          0);
  10142d:	c7 c0 72 21 10 00    	mov    $0x102172,%eax
    SETGATE(idt[T_SEGNP],                   0, CPU_GDT_KCODE, &Xsegnp,          0);
  101433:	c7 83 da 80 02 00 08 	movl   $0x8e000008,0x280da(%ebx)
  10143a:	00 00 8e 
    SETGATE(idt[T_STACK],                   0, CPU_GDT_KCODE, &Xstack,          0);
  10143d:	66 89 44 19 60       	mov    %ax,0x60(%ecx,%ebx,1)
  101442:	c1 e8 10             	shr    $0x10,%eax
  101445:	66 89 44 19 66       	mov    %ax,0x66(%ecx,%ebx,1)
    SETGATE(idt[T_GPFLT],                   0, CPU_GDT_KCODE, &Xgpflt,          0);
  10144a:	c7 c0 7a 21 10 00    	mov    $0x10217a,%eax
    SETGATE(idt[T_STACK],                   0, CPU_GDT_KCODE, &Xstack,          0);
  101450:	c7 83 e2 80 02 00 08 	movl   $0x8e000008,0x280e2(%ebx)
  101457:	00 00 8e 
    SETGATE(idt[T_GPFLT],                   0, CPU_GDT_KCODE, &Xgpflt,          0);
  10145a:	66 89 44 19 68       	mov    %ax,0x68(%ecx,%ebx,1)
  10145f:	c1 e8 10             	shr    $0x10,%eax
  101462:	66 89 44 19 6e       	mov    %ax,0x6e(%ecx,%ebx,1)
    SETGATE(idt[T_PGFLT],                   0, CPU_GDT_KCODE, &Xpgflt,          0);
  101467:	c7 c0 82 21 10 00    	mov    $0x102182,%eax
    SETGATE(idt[T_GPFLT],                   0, CPU_GDT_KCODE, &Xgpflt,          0);
  10146d:	c7 83 ea 80 02 00 08 	movl   $0x8e000008,0x280ea(%ebx)
  101474:	00 00 8e 
    SETGATE(idt[T_PGFLT],                   0, CPU_GDT_KCODE, &Xpgflt,          0);
  101477:	66 89 44 19 70       	mov    %ax,0x70(%ecx,%ebx,1)
  10147c:	c1 e8 10             	shr    $0x10,%eax
  10147f:	66 89 44 19 76       	mov    %ax,0x76(%ecx,%ebx,1)
    SETGATE(idt[T_FPERR],                   0, CPU_GDT_KCODE, &Xfperr,          0);
  101484:	c7 c0 94 21 10 00    	mov    $0x102194,%eax
    SETGATE(idt[T_PGFLT],                   0, CPU_GDT_KCODE, &Xpgflt,          0);
  10148a:	c7 83 f2 80 02 00 08 	movl   $0x8e000008,0x280f2(%ebx)
  101491:	00 00 8e 
    SETGATE(idt[T_FPERR],                   0, CPU_GDT_KCODE, &Xfperr,          0);
  101494:	66 89 84 19 80 00 00 	mov    %ax,0x80(%ecx,%ebx,1)
  10149b:	00 
  10149c:	c1 e8 10             	shr    $0x10,%eax
  10149f:	66 89 84 19 86 00 00 	mov    %ax,0x86(%ecx,%ebx,1)
  1014a6:	00 
    SETGATE(idt[T_ALIGN],                   0, CPU_GDT_KCODE, &Xalign,          0);
  1014a7:	c7 c0 9e 21 10 00    	mov    $0x10219e,%eax
    SETGATE(idt[T_FPERR],                   0, CPU_GDT_KCODE, &Xfperr,          0);
  1014ad:	66 89 b3 04 81 02 00 	mov    %si,0x28104(%ebx)
    SETGATE(idt[T_ALIGN],                   0, CPU_GDT_KCODE, &Xalign,          0);
  1014b4:	66 89 84 19 88 00 00 	mov    %ax,0x88(%ecx,%ebx,1)
  1014bb:	00 
  1014bc:	c1 e8 10             	shr    $0x10,%eax
  1014bf:	c7 83 0a 81 02 00 08 	movl   $0x8e000008,0x2810a(%ebx)
  1014c6:	00 00 8e 
  1014c9:	66 89 84 19 8e 00 00 	mov    %ax,0x8e(%ecx,%ebx,1)
  1014d0:	00 
    SETGATE(idt[T_MCHK],                    0, CPU_GDT_KCODE, &Xmchk,           0);
  1014d1:	c7 c0 a2 21 10 00    	mov    $0x1021a2,%eax
  1014d7:	c7 83 12 81 02 00 08 	movl   $0x8e000008,0x28112(%ebx)
  1014de:	00 00 8e 
    SETGATE(idt[T_IRQ0 + IRQ_SERIAL13],     0, CPU_GDT_KCODE, &Xirq_serial1,    0);
  1014e1:	c7 c2 c0 21 10 00    	mov    $0x1021c0,%edx
    SETGATE(idt[T_MCHK],                    0, CPU_GDT_KCODE, &Xmchk,           0);
  1014e7:	66 89 84 19 90 00 00 	mov    %ax,0x90(%ecx,%ebx,1)
  1014ee:	00 
  1014ef:	c1 e8 10             	shr    $0x10,%eax
  1014f2:	66 89 84 19 96 00 00 	mov    %ax,0x96(%ecx,%ebx,1)
  1014f9:	00 
    SETGATE(idt[T_IRQ0 + IRQ_TIMER],        0, CPU_GDT_KCODE, &Xirq_timer,      0);
  1014fa:	c7 c0 a8 21 10 00    	mov    $0x1021a8,%eax
    SETGATE(idt[T_IRQ0 + IRQ_SERIAL13],     0, CPU_GDT_KCODE, &Xirq_serial1,    0);
  101500:	66 89 94 19 20 01 00 	mov    %dx,0x120(%ecx,%ebx,1)
  101507:	00 
  101508:	c1 ea 10             	shr    $0x10,%edx
    SETGATE(idt[T_IRQ0 + IRQ_TIMER],        0, CPU_GDT_KCODE, &Xirq_timer,      0);
  10150b:	66 89 84 19 00 01 00 	mov    %ax,0x100(%ecx,%ebx,1)
  101512:	00 
  101513:	c1 e8 10             	shr    $0x10,%eax
  101516:	66 89 84 19 06 01 00 	mov    %ax,0x106(%ecx,%ebx,1)
  10151d:	00 
    SETGATE(idt[T_IRQ0 + IRQ_KBD],          0, CPU_GDT_KCODE, &Xirq_kbd,        0);
  10151e:	c7 c0 ae 21 10 00    	mov    $0x1021ae,%eax
    SETGATE(idt[T_IRQ0 + IRQ_SERIAL13],     0, CPU_GDT_KCODE, &Xirq_serial1,    0);
  101524:	66 89 94 19 26 01 00 	mov    %dx,0x126(%ecx,%ebx,1)
  10152b:	00 
    SETGATE(idt[T_IRQ0 + IRQ_KBD],          0, CPU_GDT_KCODE, &Xirq_kbd,        0);
  10152c:	66 89 84 19 08 01 00 	mov    %ax,0x108(%ecx,%ebx,1)
  101533:	00 
  101534:	c1 e8 10             	shr    $0x10,%eax
  101537:	66 89 84 19 0e 01 00 	mov    %ax,0x10e(%ecx,%ebx,1)
  10153e:	00 
    SETGATE(idt[T_IRQ0 + IRQ_SLAVE],        0, CPU_GDT_KCODE, &Xirq_slave,      0);
  10153f:	c7 c0 b4 21 10 00    	mov    $0x1021b4,%eax
    SETGATE(idt[T_IRQ0 + IRQ_TIMER],        0, CPU_GDT_KCODE, &Xirq_timer,      0);
  101545:	c7 83 82 81 02 00 08 	movl   $0x8e000008,0x28182(%ebx)
  10154c:	00 00 8e 
    SETGATE(idt[T_IRQ0 + IRQ_SLAVE],        0, CPU_GDT_KCODE, &Xirq_slave,      0);
  10154f:	66 89 84 19 10 01 00 	mov    %ax,0x110(%ecx,%ebx,1)
  101556:	00 
  101557:	c1 e8 10             	shr    $0x10,%eax
  10155a:	66 89 84 19 16 01 00 	mov    %ax,0x116(%ecx,%ebx,1)
  101561:	00 
    SETGATE(idt[T_IRQ0 + IRQ_SERIAL24],     0, CPU_GDT_KCODE, &Xirq_serial2,    0);
  101562:	c7 c0 ba 21 10 00    	mov    $0x1021ba,%eax
    SETGATE(idt[T_IRQ0 + IRQ_KBD],          0, CPU_GDT_KCODE, &Xirq_kbd,        0);
  101568:	c7 83 8a 81 02 00 08 	movl   $0x8e000008,0x2818a(%ebx)
  10156f:	00 00 8e 
    SETGATE(idt[T_IRQ0 + IRQ_SERIAL24],     0, CPU_GDT_KCODE, &Xirq_serial2,    0);
  101572:	66 89 84 19 18 01 00 	mov    %ax,0x118(%ecx,%ebx,1)
  101579:	00 
  10157a:	c1 e8 10             	shr    $0x10,%eax
  10157d:	66 89 84 19 1e 01 00 	mov    %ax,0x11e(%ecx,%ebx,1)
  101584:	00 
    SETGATE(idt[T_IRQ0 + IRQ_SERIAL13],     0, CPU_GDT_KCODE, &Xirq_serial1,    0);
  101585:	8b 83 a2 81 02 00    	mov    0x281a2(%ebx),%eax
    SETGATE(idt[T_IRQ0 + IRQ_SLAVE],        0, CPU_GDT_KCODE, &Xirq_slave,      0);
  10158b:	c7 83 92 81 02 00 08 	movl   $0x8e000008,0x28192(%ebx)
  101592:	00 00 8e 
    SETGATE(idt[T_IRQ0 + IRQ_SERIAL24],     0, CPU_GDT_KCODE, &Xirq_serial2,    0);
  101595:	c7 83 9a 81 02 00 08 	movl   $0x8e000008,0x2819a(%ebx)
  10159c:	00 00 8e 
    SETGATE(idt[T_IRQ0 + IRQ_SERIAL13],     0, CPU_GDT_KCODE, &Xirq_serial1,    0);
  10159f:	25 00 00 e0 ff       	and    $0xffe00000,%eax
    SETGATE(idt[T_IRQ0 + IRQ_LPT2],         0, CPU_GDT_KCODE, &Xirq_lpt,        0);
  1015a4:	c7 83 aa 81 02 00 08 	movl   $0x8e000008,0x281aa(%ebx)
  1015ab:	00 00 8e 
    SETGATE(idt[T_IRQ0 + IRQ_SERIAL13],     0, CPU_GDT_KCODE, &Xirq_serial1,    0);
  1015ae:	83 c8 08             	or     $0x8,%eax
  1015b1:	89 83 a2 81 02 00    	mov    %eax,0x281a2(%ebx)
  1015b7:	0f b7 83 a4 81 02 00 	movzwl 0x281a4(%ebx),%eax
  1015be:	83 e0 1f             	and    $0x1f,%eax
  1015c1:	66 0d 00 8e          	or     $0x8e00,%ax
  1015c5:	66 89 83 a4 81 02 00 	mov    %ax,0x281a4(%ebx)
    SETGATE(idt[T_IRQ0 + IRQ_LPT2],         0, CPU_GDT_KCODE, &Xirq_lpt,        0);
  1015cc:	c7 c0 c6 21 10 00    	mov    $0x1021c6,%eax
  1015d2:	66 89 84 19 28 01 00 	mov    %ax,0x128(%ecx,%ebx,1)
  1015d9:	00 
  1015da:	c1 e8 10             	shr    $0x10,%eax
  1015dd:	66 89 84 19 2e 01 00 	mov    %ax,0x12e(%ecx,%ebx,1)
  1015e4:	00 
    SETGATE(idt[T_IRQ0 + IRQ_FLOPPY],       0, CPU_GDT_KCODE, &Xirq_floppy,     0);
  1015e5:	c7 c0 cc 21 10 00    	mov    $0x1021cc,%eax
  1015eb:	66 89 84 19 30 01 00 	mov    %ax,0x130(%ecx,%ebx,1)
  1015f2:	00 
  1015f3:	c1 e8 10             	shr    $0x10,%eax
    SETGATE(idt[T_IRQ0 + 11],               0, CPU_GDT_KCODE, &Xirq11,          0);
  1015f6:	c7 c2 ea 21 10 00    	mov    $0x1021ea,%edx
    SETGATE(idt[T_IRQ0 + IRQ_FLOPPY],       0, CPU_GDT_KCODE, &Xirq_floppy,     0);
  1015fc:	66 89 84 19 36 01 00 	mov    %ax,0x136(%ecx,%ebx,1)
  101603:	00 
    SETGATE(idt[T_IRQ0 + IRQ_SPURIOUS],     0, CPU_GDT_KCODE, &Xirq_spurious,   0);
  101604:	c7 c0 d2 21 10 00    	mov    $0x1021d2,%eax
    SETGATE(idt[T_IRQ0 + 11],               0, CPU_GDT_KCODE, &Xirq11,          0);
  10160a:	66 89 94 19 58 01 00 	mov    %dx,0x158(%ecx,%ebx,1)
  101611:	00 
    SETGATE(idt[T_IRQ0 + IRQ_SPURIOUS],     0, CPU_GDT_KCODE, &Xirq_spurious,   0);
  101612:	66 89 84 19 38 01 00 	mov    %ax,0x138(%ecx,%ebx,1)
  101619:	00 
  10161a:	c1 e8 10             	shr    $0x10,%eax
  10161d:	66 89 84 19 3e 01 00 	mov    %ax,0x13e(%ecx,%ebx,1)
  101624:	00 
    SETGATE(idt[T_IRQ0 + IRQ_RTC],          0, CPU_GDT_KCODE, &Xirq_rtc,        0);
  101625:	c7 c0 d8 21 10 00    	mov    $0x1021d8,%eax
    SETGATE(idt[T_IRQ0 + IRQ_FLOPPY],       0, CPU_GDT_KCODE, &Xirq_floppy,     0);
  10162b:	c7 83 b2 81 02 00 08 	movl   $0x8e000008,0x281b2(%ebx)
  101632:	00 00 8e 
    SETGATE(idt[T_IRQ0 + IRQ_RTC],          0, CPU_GDT_KCODE, &Xirq_rtc,        0);
  101635:	66 89 84 19 40 01 00 	mov    %ax,0x140(%ecx,%ebx,1)
  10163c:	00 
  10163d:	c1 e8 10             	shr    $0x10,%eax
  101640:	66 89 84 19 46 01 00 	mov    %ax,0x146(%ecx,%ebx,1)
  101647:	00 
    SETGATE(idt[T_IRQ0 + 9],                0, CPU_GDT_KCODE, &Xirq9,           0);
  101648:	c7 c0 de 21 10 00    	mov    $0x1021de,%eax
    SETGATE(idt[T_IRQ0 + IRQ_SPURIOUS],     0, CPU_GDT_KCODE, &Xirq_spurious,   0);
  10164e:	c7 83 ba 81 02 00 08 	movl   $0x8e000008,0x281ba(%ebx)
  101655:	00 00 8e 
    SETGATE(idt[T_IRQ0 + 9],                0, CPU_GDT_KCODE, &Xirq9,           0);
  101658:	66 89 84 19 48 01 00 	mov    %ax,0x148(%ecx,%ebx,1)
  10165f:	00 
  101660:	c1 e8 10             	shr    $0x10,%eax
  101663:	66 89 84 19 4e 01 00 	mov    %ax,0x14e(%ecx,%ebx,1)
  10166a:	00 
    SETGATE(idt[T_IRQ0 + 10],               0, CPU_GDT_KCODE, &Xirq10,          0);
  10166b:	c7 c0 e4 21 10 00    	mov    $0x1021e4,%eax
    SETGATE(idt[T_IRQ0 + IRQ_RTC],          0, CPU_GDT_KCODE, &Xirq_rtc,        0);
  101671:	c7 83 c2 81 02 00 08 	movl   $0x8e000008,0x281c2(%ebx)
  101678:	00 00 8e 
    SETGATE(idt[T_IRQ0 + 10],               0, CPU_GDT_KCODE, &Xirq10,          0);
  10167b:	66 89 84 19 50 01 00 	mov    %ax,0x150(%ecx,%ebx,1)
  101682:	00 
  101683:	c1 e8 10             	shr    $0x10,%eax
  101686:	66 89 84 19 56 01 00 	mov    %ax,0x156(%ecx,%ebx,1)
  10168d:	00 
    SETGATE(idt[T_IRQ0 + 11],               0, CPU_GDT_KCODE, &Xirq11,          0);
  10168e:	8b 83 da 81 02 00    	mov    0x281da(%ebx),%eax
    SETGATE(idt[T_IRQ0 + 9],                0, CPU_GDT_KCODE, &Xirq9,           0);
  101694:	c7 83 ca 81 02 00 08 	movl   $0x8e000008,0x281ca(%ebx)
  10169b:	00 00 8e 
    SETGATE(idt[T_IRQ0 + 10],               0, CPU_GDT_KCODE, &Xirq10,          0);
  10169e:	c7 83 d2 81 02 00 08 	movl   $0x8e000008,0x281d2(%ebx)
  1016a5:	00 00 8e 
    SETGATE(idt[T_IRQ0 + 11],               0, CPU_GDT_KCODE, &Xirq11,          0);
  1016a8:	25 00 00 00 ff       	and    $0xff000000,%eax
  1016ad:	c1 ea 10             	shr    $0x10,%edx
  1016b0:	83 c8 08             	or     $0x8,%eax
  1016b3:	66 89 94 19 5e 01 00 	mov    %dx,0x15e(%ecx,%ebx,1)
  1016ba:	00 
  1016bb:	89 83 da 81 02 00    	mov    %eax,0x281da(%ebx)
    SETGATE(idt[T_IRQ0 + IRQ_MOUSE],        0, CPU_GDT_KCODE, &Xirq_mouse,      0);
  1016c1:	c7 c0 f0 21 10 00    	mov    $0x1021f0,%eax
    SETGATE(idt[T_IRQ0 + 11],               0, CPU_GDT_KCODE, &Xirq11,          0);
  1016c7:	c6 83 dd 81 02 00 8e 	movb   $0x8e,0x281dd(%ebx)
    SETGATE(idt[T_IRQ0 + IRQ_MOUSE],        0, CPU_GDT_KCODE, &Xirq_mouse,      0);
  1016ce:	66 89 84 19 60 01 00 	mov    %ax,0x160(%ecx,%ebx,1)
  1016d5:	00 
  1016d6:	c1 e8 10             	shr    $0x10,%eax
  1016d9:	66 89 84 19 66 01 00 	mov    %ax,0x166(%ecx,%ebx,1)
  1016e0:	00 
    SETGATE(idt[T_IRQ0 + IRQ_COPROCESSOR],  0, CPU_GDT_KCODE, &Xirq_coproc,     0);
  1016e1:	c7 c0 f6 21 10 00    	mov    $0x1021f6,%eax
    SETGATE(idt[T_IRQ0 + IRQ_MOUSE],        0, CPU_GDT_KCODE, &Xirq_mouse,      0);
  1016e7:	c7 83 e2 81 02 00 08 	movl   $0x8e000008,0x281e2(%ebx)
  1016ee:	00 00 8e 
    SETGATE(idt[T_IRQ0 + IRQ_COPROCESSOR],  0, CPU_GDT_KCODE, &Xirq_coproc,     0);
  1016f1:	66 89 84 19 68 01 00 	mov    %ax,0x168(%ecx,%ebx,1)
  1016f8:	00 
  1016f9:	c1 e8 10             	shr    $0x10,%eax
  1016fc:	c7 83 ea 81 02 00 08 	movl   $0x8e000008,0x281ea(%ebx)
  101703:	00 00 8e 
  101706:	66 89 84 19 6e 01 00 	mov    %ax,0x16e(%ecx,%ebx,1)
  10170d:	00 
    SETGATE(idt[T_IRQ0 + IRQ_IDE1],         0, CPU_GDT_KCODE, &Xirq_ide1,       0);
  10170e:	c7 c0 fc 21 10 00    	mov    $0x1021fc,%eax
  101714:	c7 83 f2 81 02 00 08 	movl   $0x8e000008,0x281f2(%ebx)
  10171b:	00 00 8e 
  10171e:	66 89 84 19 70 01 00 	mov    %ax,0x170(%ecx,%ebx,1)
  101725:	00 
  101726:	c1 e8 10             	shr    $0x10,%eax
  101729:	66 89 84 19 76 01 00 	mov    %ax,0x176(%ecx,%ebx,1)
  101730:	00 
    SETGATE(idt[T_IRQ0 + IRQ_IDE2],         0, CPU_GDT_KCODE, &Xirq_ide2,       0);
  101731:	c7 c0 02 22 10 00    	mov    $0x102202,%eax
  101737:	c7 83 fa 81 02 00 08 	movl   $0x8e000008,0x281fa(%ebx)
  10173e:	00 00 8e 
  101741:	66 89 84 19 78 01 00 	mov    %ax,0x178(%ecx,%ebx,1)
  101748:	00 
  101749:	c1 e8 10             	shr    $0x10,%eax
  10174c:	66 89 84 19 7e 01 00 	mov    %ax,0x17e(%ecx,%ebx,1)
  101753:	00 
    SETGATE(idt[T_SYSCALL], 0, CPU_GDT_KCODE, &Xsyscall, 3);
  101754:	c7 c0 08 22 10 00    	mov    $0x102208,%eax
  10175a:	c7 83 02 82 02 00 08 	movl   $0xee000008,0x28202(%ebx)
  101761:	00 00 ee 
  101764:	66 89 84 19 80 01 00 	mov    %ax,0x180(%ecx,%ebx,1)
  10176b:	00 
  10176c:	c1 e8 10             	shr    $0x10,%eax
  10176f:	66 89 84 19 86 01 00 	mov    %ax,0x186(%ecx,%ebx,1)
  101776:	00 
    SETGATE(idt[T_DEFAULT], 0, CPU_GDT_KCODE, &Xdefault, 0);
  101777:	0f b7 44 24 0c       	movzwl 0xc(%esp),%eax
  10177c:	c7 83 72 88 02 00 08 	movl   $0x8e000008,0x28872(%ebx)
  101783:	00 00 8e 
  101786:	66 89 84 19 f0 07 00 	mov    %ax,0x7f0(%ecx,%ebx,1)
  10178d:	00 
  10178e:	0f b7 44 24 08       	movzwl 0x8(%esp),%eax
  101793:	66 89 84 19 f6 07 00 	mov    %ax,0x7f6(%ecx,%ebx,1)
  10179a:	00 
    if (using_apic)
  10179b:	0f b6 83 80 88 02 00 	movzbl 0x28880(%ebx),%eax
  1017a2:	84 c0                	test   %al,%al
  1017a4:	0f 84 c0 fa ff ff    	je     10126a <intr_init+0x7a>
  1017aa:	8d b6 00 00 00 00    	lea    0x0(%esi),%esi
        lapic_init();
  1017b0:	e8 db 0d 00 00       	call   102590 <lapic_init>
  1017b5:	e9 b0 fa ff ff       	jmp    10126a <intr_init+0x7a>
  1017ba:	8d b6 00 00 00 00    	lea    0x0(%esi),%esi

001017c0 <intr_enable>:

void intr_enable(uint8_t irq, int cpunum)
{
  1017c0:	57                   	push   %edi
  1017c1:	56                   	push   %esi
  1017c2:	53                   	push   %ebx
  1017c3:	8b 7c 24 14          	mov    0x14(%esp),%edi
  1017c7:	e8 bd eb ff ff       	call   100389 <__x86.get_pc_thunk.bx>
  1017cc:	81 c3 34 f8 00 00    	add    $0xf834,%ebx
  1017d2:	8b 74 24 10          	mov    0x10(%esp),%esi
    KERN_ASSERT(cpunum == 0xff || (0 <= cpunum && cpunum < pcpu_ncpu()));
  1017d6:	81 ff ff 00 00 00    	cmp    $0xff,%edi
  1017dc:	74 12                	je     1017f0 <intr_enable+0x30>
  1017de:	85 ff                	test   %edi,%edi
  1017e0:	78 3e                	js     101820 <intr_enable+0x60>
  1017e2:	e8 59 22 00 00       	call   103a40 <pcpu_ncpu>
  1017e7:	39 f8                	cmp    %edi,%eax
  1017e9:	76 35                	jbe    101820 <intr_enable+0x60>
  1017eb:	8d 74 26 00          	lea    0x0(%esi,%eiz,1),%esi
  1017ef:	90                   	nop

    if (irq >= 24)
  1017f0:	89 f0                	mov    %esi,%eax
  1017f2:	3c 17                	cmp    $0x17,%al
  1017f4:	77 26                	ja     10181c <intr_enable+0x5c>
        return;

    if (using_apic == TRUE) {
  1017f6:	0f b6 83 80 88 02 00 	movzbl 0x28880(%ebx),%eax
  1017fd:	3c 01                	cmp    $0x1,%al
  1017ff:	74 47                	je     101848 <intr_enable+0x88>
        ioapic_enable(irq, (cpunum == 0xff) ?  0xff : pcpu_cpu_lapicid(cpunum), 0, 0);
    } else {
        KERN_ASSERT(irq < 16);
  101801:	89 f0                	mov    %esi,%eax
  101803:	3c 0f                	cmp    $0xf,%al
  101805:	0f 87 7d 00 00 00    	ja     101888 <intr_enable+0xc8>
        pic_enable(irq);
  10180b:	89 f0                	mov    %esi,%eax
  10180d:	83 ec 0c             	sub    $0xc,%esp
  101810:	0f b6 f0             	movzbl %al,%esi
  101813:	56                   	push   %esi
  101814:	e8 e7 02 00 00       	call   101b00 <pic_enable>
  101819:	83 c4 10             	add    $0x10,%esp
    }
}
  10181c:	5b                   	pop    %ebx
  10181d:	5e                   	pop    %esi
  10181e:	5f                   	pop    %edi
  10181f:	c3                   	ret    
    KERN_ASSERT(cpunum == 0xff || (0 <= cpunum && cpunum < pcpu_ncpu()));
  101820:	8d 83 34 84 ff ff    	lea    -0x7bcc(%ebx),%eax
  101826:	50                   	push   %eax
  101827:	8d 83 bf 82 ff ff    	lea    -0x7d41(%ebx),%eax
  10182d:	50                   	push   %eax
  10182e:	8d 83 18 84 ff ff    	lea    -0x7be8(%ebx),%eax
  101834:	6a 7a                	push   $0x7a
  101836:	50                   	push   %eax
  101837:	e8 f4 27 00 00       	call   104030 <debug_panic>
  10183c:	83 c4 10             	add    $0x10,%esp
  10183f:	eb af                	jmp    1017f0 <intr_enable+0x30>
  101841:	8d b4 26 00 00 00 00 	lea    0x0(%esi,%eiz,1),%esi
        ioapic_enable(irq, (cpunum == 0xff) ?  0xff : pcpu_cpu_lapicid(cpunum), 0, 0);
  101848:	81 ff ff 00 00 00    	cmp    $0xff,%edi
  10184e:	75 20                	jne    101870 <intr_enable+0xb0>
  101850:	89 f0                	mov    %esi,%eax
  101852:	6a 00                	push   $0x0
  101854:	0f b6 f0             	movzbl %al,%esi
  101857:	6a 00                	push   $0x0
  101859:	57                   	push   %edi
  10185a:	56                   	push   %esi
  10185b:	e8 d0 13 00 00       	call   102c30 <ioapic_enable>
  101860:	83 c4 10             	add    $0x10,%esp
}
  101863:	5b                   	pop    %ebx
  101864:	5e                   	pop    %esi
  101865:	5f                   	pop    %edi
  101866:	c3                   	ret    
  101867:	8d b4 26 00 00 00 00 	lea    0x0(%esi,%eiz,1),%esi
  10186e:	66 90                	xchg   %ax,%ax
        ioapic_enable(irq, (cpunum == 0xff) ?  0xff : pcpu_cpu_lapicid(cpunum), 0, 0);
  101870:	83 ec 0c             	sub    $0xc,%esp
  101873:	57                   	push   %edi
  101874:	e8 57 22 00 00       	call   103ad0 <pcpu_cpu_lapicid>
  101879:	83 c4 10             	add    $0x10,%esp
  10187c:	0f b6 f8             	movzbl %al,%edi
  10187f:	eb cf                	jmp    101850 <intr_enable+0x90>
  101881:	8d b4 26 00 00 00 00 	lea    0x0(%esi,%eiz,1),%esi
        KERN_ASSERT(irq < 16);
  101888:	8d 83 28 84 ff ff    	lea    -0x7bd8(%ebx),%eax
  10188e:	50                   	push   %eax
  10188f:	8d 83 bf 82 ff ff    	lea    -0x7d41(%ebx),%eax
  101895:	50                   	push   %eax
  101896:	8d 83 18 84 ff ff    	lea    -0x7be8(%ebx),%eax
  10189c:	68 82 00 00 00       	push   $0x82
  1018a1:	50                   	push   %eax
  1018a2:	e8 89 27 00 00       	call   104030 <debug_panic>
  1018a7:	83 c4 10             	add    $0x10,%esp
  1018aa:	e9 5c ff ff ff       	jmp    10180b <intr_enable+0x4b>
  1018af:	90                   	nop

001018b0 <intr_enable_lapicid>:

void intr_enable_lapicid(uint8_t irq, int lapic_id)
{
  1018b0:	56                   	push   %esi
  1018b1:	53                   	push   %ebx
  1018b2:	e8 d2 ea ff ff       	call   100389 <__x86.get_pc_thunk.bx>
  1018b7:	81 c3 49 f7 00 00    	add    $0xf749,%ebx
  1018bd:	83 ec 04             	sub    $0x4,%esp
  1018c0:	8b 44 24 10          	mov    0x10(%esp),%eax
    if (irq > 24)
  1018c4:	3c 18                	cmp    $0x18,%al
  1018c6:	77 1f                	ja     1018e7 <intr_enable_lapicid+0x37>
        return;

    if (using_apic == TRUE) {
  1018c8:	0f b6 93 80 88 02 00 	movzbl 0x28880(%ebx),%edx
        ioapic_enable(irq, (lapic_id == 0xff) ?  0xff : lapic_id, 0, 0);
  1018cf:	0f b6 f0             	movzbl %al,%esi
    if (using_apic == TRUE) {
  1018d2:	80 fa 01             	cmp    $0x1,%dl
  1018d5:	74 41                	je     101918 <intr_enable_lapicid+0x68>
    } else {
        KERN_ASSERT(irq < 16);
  1018d7:	3c 0f                	cmp    $0xf,%al
  1018d9:	77 15                	ja     1018f0 <intr_enable_lapicid+0x40>
        pic_enable(irq);
  1018db:	83 ec 0c             	sub    $0xc,%esp
  1018de:	56                   	push   %esi
  1018df:	e8 1c 02 00 00       	call   101b00 <pic_enable>
  1018e4:	83 c4 10             	add    $0x10,%esp
    }
}
  1018e7:	83 c4 04             	add    $0x4,%esp
  1018ea:	5b                   	pop    %ebx
  1018eb:	5e                   	pop    %esi
  1018ec:	c3                   	ret    
  1018ed:	8d 76 00             	lea    0x0(%esi),%esi
        KERN_ASSERT(irq < 16);
  1018f0:	8d 83 28 84 ff ff    	lea    -0x7bd8(%ebx),%eax
  1018f6:	50                   	push   %eax
  1018f7:	8d 83 bf 82 ff ff    	lea    -0x7d41(%ebx),%eax
  1018fd:	50                   	push   %eax
  1018fe:	8d 83 18 84 ff ff    	lea    -0x7be8(%ebx),%eax
  101904:	68 8f 00 00 00       	push   $0x8f
  101909:	50                   	push   %eax
  10190a:	e8 21 27 00 00       	call   104030 <debug_panic>
  10190f:	83 c4 10             	add    $0x10,%esp
  101912:	eb c7                	jmp    1018db <intr_enable_lapicid+0x2b>
  101914:	8d 74 26 00          	lea    0x0(%esi,%eiz,1),%esi
        ioapic_enable(irq, (lapic_id == 0xff) ?  0xff : lapic_id, 0, 0);
  101918:	6a 00                	push   $0x0
  10191a:	6a 00                	push   $0x0
  10191c:	0f b6 44 24 1c       	movzbl 0x1c(%esp),%eax
  101921:	50                   	push   %eax
  101922:	56                   	push   %esi
  101923:	e8 08 13 00 00       	call   102c30 <ioapic_enable>
  101928:	83 c4 10             	add    $0x10,%esp
}
  10192b:	83 c4 04             	add    $0x4,%esp
  10192e:	5b                   	pop    %ebx
  10192f:	5e                   	pop    %esi
  101930:	c3                   	ret    
  101931:	8d b4 26 00 00 00 00 	lea    0x0(%esi,%eiz,1),%esi
  101938:	8d b4 26 00 00 00 00 	lea    0x0(%esi,%eiz,1),%esi
  10193f:	90                   	nop

00101940 <intr_eoi>:

void intr_eoi(void)
{
  101940:	53                   	push   %ebx
  101941:	e8 43 ea ff ff       	call   100389 <__x86.get_pc_thunk.bx>
  101946:	81 c3 ba f6 00 00    	add    $0xf6ba,%ebx
  10194c:	83 ec 08             	sub    $0x8,%esp
    if (using_apic == TRUE)
  10194f:	0f b6 83 80 88 02 00 	movzbl 0x28880(%ebx),%eax
  101956:	3c 01                	cmp    $0x1,%al
  101958:	74 0e                	je     101968 <intr_eoi+0x28>
        lapic_eoi();
    else
        pic_eoi();
  10195a:	e8 f1 01 00 00       	call   101b50 <pic_eoi>
}
  10195f:	83 c4 08             	add    $0x8,%esp
  101962:	5b                   	pop    %ebx
  101963:	c3                   	ret    
  101964:	8d 74 26 00          	lea    0x0(%esi,%eiz,1),%esi
        lapic_eoi();
  101968:	e8 13 0f 00 00       	call   102880 <lapic_eoi>
}
  10196d:	83 c4 08             	add    $0x8,%esp
  101970:	5b                   	pop    %ebx
  101971:	c3                   	ret    
  101972:	8d b4 26 00 00 00 00 	lea    0x0(%esi,%eiz,1),%esi
  101979:	8d b4 26 00 00 00 00 	lea    0x0(%esi,%eiz,1),%esi

00101980 <intr_local_enable>:

void intr_local_enable(void)
{
  101980:	53                   	push   %ebx
  101981:	e8 03 ea ff ff       	call   100389 <__x86.get_pc_thunk.bx>
  101986:	81 c3 7a f6 00 00    	add    $0xf67a,%ebx
  10198c:	83 ec 08             	sub    $0x8,%esp
    sti();
  10198f:	e8 dc 32 00 00       	call   104c70 <sti>
}
  101994:	83 c4 08             	add    $0x8,%esp
  101997:	5b                   	pop    %ebx
  101998:	c3                   	ret    
  101999:	8d b4 26 00 00 00 00 	lea    0x0(%esi,%eiz,1),%esi

001019a0 <intr_local_disable>:

void intr_local_disable(void)
{
  1019a0:	53                   	push   %ebx
  1019a1:	e8 e3 e9 ff ff       	call   100389 <__x86.get_pc_thunk.bx>
  1019a6:	81 c3 5a f6 00 00    	add    $0xf65a,%ebx
  1019ac:	83 ec 08             	sub    $0x8,%esp
    cli();
  1019af:	e8 ac 32 00 00       	call   104c60 <cli>
}
  1019b4:	83 c4 08             	add    $0x8,%esp
  1019b7:	5b                   	pop    %ebx
  1019b8:	c3                   	ret    
  1019b9:	66 90                	xchg   %ax,%ax
  1019bb:	66 90                	xchg   %ax,%ax
  1019bd:	66 90                	xchg   %ax,%ax
  1019bf:	90                   	nop

001019c0 <pic_init>:
static uint16_t irqmask = 0xFFFF & ~(1 << IRQ_SLAVE);
static bool pic_inited = FALSE;

/* Initialize the 8259A interrupt controllers. */
void pic_init(void)
{
  1019c0:	53                   	push   %ebx
  1019c1:	e8 c3 e9 ff ff       	call   100389 <__x86.get_pc_thunk.bx>
  1019c6:	81 c3 3a f6 00 00    	add    $0xf63a,%ebx
  1019cc:	83 ec 08             	sub    $0x8,%esp
    if (pic_inited == TRUE)  // only do once on bootstrap CPU
  1019cf:	80 bb 81 88 02 00 01 	cmpb   $0x1,0x28881(%ebx)
  1019d6:	0f 84 df 00 00 00    	je     101abb <pic_init+0xfb>
        return;
    pic_inited = TRUE;

    /* mask all interrupts */
    outb(IO_PIC1 + 1, 0xff);
  1019dc:	83 ec 08             	sub    $0x8,%esp
    pic_inited = TRUE;
  1019df:	c6 83 81 88 02 00 01 	movb   $0x1,0x28881(%ebx)
    outb(IO_PIC1 + 1, 0xff);
  1019e6:	68 ff 00 00 00       	push   $0xff
  1019eb:	6a 21                	push   $0x21
  1019ed:	e8 8e 34 00 00       	call   104e80 <outb>
    outb(IO_PIC2 + 1, 0xff);
  1019f2:	58                   	pop    %eax
  1019f3:	5a                   	pop    %edx
  1019f4:	68 ff 00 00 00       	push   $0xff
  1019f9:	68 a1 00 00 00       	push   $0xa1
  1019fe:	e8 7d 34 00 00       	call   104e80 <outb>

    // ICW1:  0001g0hi
    //    g:  0 = edge triggering, 1 = level triggering
    //    h:  0 = cascaded PICs, 1 = master only
    //    i:  0 = no ICW4, 1 = ICW4 required
    outb(IO_PIC1, 0x11);
  101a03:	59                   	pop    %ecx
  101a04:	58                   	pop    %eax
  101a05:	6a 11                	push   $0x11
  101a07:	6a 20                	push   $0x20
  101a09:	e8 72 34 00 00       	call   104e80 <outb>

    // ICW2:  Vector offset
    outb(IO_PIC1 + 1, T_IRQ0);
  101a0e:	58                   	pop    %eax
  101a0f:	5a                   	pop    %edx
  101a10:	6a 20                	push   $0x20
  101a12:	6a 21                	push   $0x21
  101a14:	e8 67 34 00 00       	call   104e80 <outb>

    // ICW3:  bit mask of IR lines connected to slave PICs (master PIC),
    //        3-bit No of IR line at which slave connects to master (slave PIC).
    outb(IO_PIC1 + 1, 1 << IRQ_SLAVE);
  101a19:	59                   	pop    %ecx
  101a1a:	58                   	pop    %eax
  101a1b:	6a 04                	push   $0x4
  101a1d:	6a 21                	push   $0x21
  101a1f:	e8 5c 34 00 00       	call   104e80 <outb>
    //    m:  0 = slave PIC, 1 = master PIC
    //        (ignored when b is 0, as the master/slave role
    //        can be hardwired).
    //    a:  1 = Automatic EOI mode
    //    p:  0 = MCS-80/85 mode, 1 = intel x86 mode
    outb(IO_PIC1 + 1, 0x1);
  101a24:	58                   	pop    %eax
  101a25:	5a                   	pop    %edx
  101a26:	6a 01                	push   $0x1
  101a28:	6a 21                	push   $0x21
  101a2a:	e8 51 34 00 00       	call   104e80 <outb>

    // Set up slave (8259A-2)
    outb(IO_PIC2, 0x11);            // ICW1
  101a2f:	59                   	pop    %ecx
  101a30:	58                   	pop    %eax
  101a31:	6a 11                	push   $0x11
  101a33:	68 a0 00 00 00       	push   $0xa0
  101a38:	e8 43 34 00 00       	call   104e80 <outb>
    outb(IO_PIC2 + 1, T_IRQ0 + 8);  // ICW2
  101a3d:	58                   	pop    %eax
  101a3e:	5a                   	pop    %edx
  101a3f:	6a 28                	push   $0x28
  101a41:	68 a1 00 00 00       	push   $0xa1
  101a46:	e8 35 34 00 00       	call   104e80 <outb>
    outb(IO_PIC2 + 1, IRQ_SLAVE);   // ICW3
  101a4b:	59                   	pop    %ecx
  101a4c:	58                   	pop    %eax
  101a4d:	6a 02                	push   $0x2
  101a4f:	68 a1 00 00 00       	push   $0xa1
  101a54:	e8 27 34 00 00       	call   104e80 <outb>
    // NB Automatic EOI mode doesn't tend to work on the slave.
    // Linux source code says it's "to be investigated".
    outb(IO_PIC2 + 1, 0x01);        // ICW4
  101a59:	58                   	pop    %eax
  101a5a:	5a                   	pop    %edx
  101a5b:	6a 01                	push   $0x1
  101a5d:	68 a1 00 00 00       	push   $0xa1
  101a62:	e8 19 34 00 00       	call   104e80 <outb>

    // OCW3:  0ef01prs
    //   ef:  0x = NOP, 10 = clear specific mask, 11 = set specific mask
    //    p:  0 = no polling, 1 = polling mode
    //   rs:  0x = NOP, 10 = read IRR, 11 = read ISR
    outb(IO_PIC1, 0x68);  /* clear specific mask */
  101a67:	59                   	pop    %ecx
  101a68:	58                   	pop    %eax
  101a69:	6a 68                	push   $0x68
  101a6b:	6a 20                	push   $0x20
  101a6d:	e8 0e 34 00 00       	call   104e80 <outb>
    outb(IO_PIC1, 0x0a);  /* read IRR by default */
  101a72:	58                   	pop    %eax
  101a73:	5a                   	pop    %edx
  101a74:	6a 0a                	push   $0xa
  101a76:	6a 20                	push   $0x20
  101a78:	e8 03 34 00 00       	call   104e80 <outb>

    outb(IO_PIC2, 0x68);  /* OCW3 */
  101a7d:	59                   	pop    %ecx
  101a7e:	58                   	pop    %eax
  101a7f:	6a 68                	push   $0x68
  101a81:	68 a0 00 00 00       	push   $0xa0
  101a86:	e8 f5 33 00 00       	call   104e80 <outb>
    outb(IO_PIC2, 0x0a);  /* OCW3 */
  101a8b:	58                   	pop    %eax
  101a8c:	5a                   	pop    %edx
  101a8d:	6a 0a                	push   $0xa
  101a8f:	68 a0 00 00 00       	push   $0xa0
  101a94:	e8 e7 33 00 00       	call   104e80 <outb>

    // mask all interrupts
    outb(IO_PIC1 + 1, 0xFF);
  101a99:	59                   	pop    %ecx
  101a9a:	58                   	pop    %eax
  101a9b:	68 ff 00 00 00       	push   $0xff
  101aa0:	6a 21                	push   $0x21
  101aa2:	e8 d9 33 00 00       	call   104e80 <outb>
    outb(IO_PIC2 + 1, 0xFF);
  101aa7:	58                   	pop    %eax
  101aa8:	5a                   	pop    %edx
  101aa9:	68 ff 00 00 00       	push   $0xff
  101aae:	68 a1 00 00 00       	push   $0xa1
  101ab3:	e8 c8 33 00 00       	call   104e80 <outb>
  101ab8:	83 c4 10             	add    $0x10,%esp
}
  101abb:	83 c4 08             	add    $0x8,%esp
  101abe:	5b                   	pop    %ebx
  101abf:	c3                   	ret    

00101ac0 <pic_setmask>:

void pic_setmask(uint16_t mask)
{
  101ac0:	56                   	push   %esi
  101ac1:	53                   	push   %ebx
  101ac2:	e8 c2 e8 ff ff       	call   100389 <__x86.get_pc_thunk.bx>
  101ac7:	81 c3 39 f5 00 00    	add    $0xf539,%ebx
  101acd:	83 ec 0c             	sub    $0xc,%esp
  101ad0:	8b 74 24 18          	mov    0x18(%esp),%esi
    irqmask = mask;
    outb(IO_PIC1 + 1, (char) mask);
  101ad4:	89 f0                	mov    %esi,%eax
  101ad6:	0f b6 c0             	movzbl %al,%eax
    irqmask = mask;
  101ad9:	66 89 b3 26 03 00 00 	mov    %si,0x326(%ebx)
    outb(IO_PIC1 + 1, (char) mask);
  101ae0:	50                   	push   %eax
  101ae1:	6a 21                	push   $0x21
  101ae3:	e8 98 33 00 00       	call   104e80 <outb>
    outb(IO_PIC2 + 1, (char) (mask >> 8));
  101ae8:	58                   	pop    %eax
  101ae9:	89 f0                	mov    %esi,%eax
  101aeb:	5a                   	pop    %edx
  101aec:	0f b6 f4             	movzbl %ah,%esi
  101aef:	56                   	push   %esi
  101af0:	68 a1 00 00 00       	push   $0xa1
  101af5:	e8 86 33 00 00       	call   104e80 <outb>
}
  101afa:	83 c4 14             	add    $0x14,%esp
  101afd:	5b                   	pop    %ebx
  101afe:	5e                   	pop    %esi
  101aff:	c3                   	ret    

00101b00 <pic_enable>:

void pic_enable(int irq)
{
  101b00:	56                   	push   %esi
  101b01:	53                   	push   %ebx
  101b02:	e8 82 e8 ff ff       	call   100389 <__x86.get_pc_thunk.bx>
  101b07:	81 c3 f9 f4 00 00    	add    $0xf4f9,%ebx
  101b0d:	83 ec 0c             	sub    $0xc,%esp
    pic_setmask(irqmask & ~(1 << irq));
  101b10:	8b 44 24 18          	mov    0x18(%esp),%eax
  101b14:	0f b7 b3 26 03 00 00 	movzwl 0x326(%ebx),%esi
  101b1b:	0f b3 c6             	btr    %eax,%esi
    outb(IO_PIC1 + 1, (char) mask);
  101b1e:	89 f0                	mov    %esi,%eax
    irqmask = mask;
  101b20:	66 89 b3 26 03 00 00 	mov    %si,0x326(%ebx)
    outb(IO_PIC2 + 1, (char) (mask >> 8));
  101b27:	66 c1 ee 08          	shr    $0x8,%si
    outb(IO_PIC1 + 1, (char) mask);
  101b2b:	0f b6 c0             	movzbl %al,%eax
    outb(IO_PIC2 + 1, (char) (mask >> 8));
  101b2e:	0f b7 f6             	movzwl %si,%esi
    outb(IO_PIC1 + 1, (char) mask);
  101b31:	50                   	push   %eax
  101b32:	6a 21                	push   $0x21
  101b34:	e8 47 33 00 00       	call   104e80 <outb>
    outb(IO_PIC2 + 1, (char) (mask >> 8));
  101b39:	58                   	pop    %eax
  101b3a:	5a                   	pop    %edx
  101b3b:	56                   	push   %esi
  101b3c:	68 a1 00 00 00       	push   $0xa1
  101b41:	e8 3a 33 00 00       	call   104e80 <outb>
}
  101b46:	83 c4 14             	add    $0x14,%esp
  101b49:	5b                   	pop    %ebx
  101b4a:	5e                   	pop    %esi
  101b4b:	c3                   	ret    
  101b4c:	8d 74 26 00          	lea    0x0(%esi,%eiz,1),%esi

00101b50 <pic_eoi>:

void pic_eoi(void)
{
  101b50:	53                   	push   %ebx
  101b51:	e8 33 e8 ff ff       	call   100389 <__x86.get_pc_thunk.bx>
  101b56:	81 c3 aa f4 00 00    	add    $0xf4aa,%ebx
  101b5c:	83 ec 10             	sub    $0x10,%esp
    // OCW2: rse00xxx
    //   r: rotate
    //   s: specific
    //   e: end-of-interrupt
    // xxx: specific interrupt line
    outb(IO_PIC1, 0x20);
  101b5f:	6a 20                	push   $0x20
  101b61:	6a 20                	push   $0x20
  101b63:	e8 18 33 00 00       	call   104e80 <outb>
    outb(IO_PIC2, 0x20);
  101b68:	58                   	pop    %eax
  101b69:	5a                   	pop    %edx
  101b6a:	6a 20                	push   $0x20
  101b6c:	68 a0 00 00 00       	push   $0xa0
  101b71:	e8 0a 33 00 00       	call   104e80 <outb>
}
  101b76:	83 c4 18             	add    $0x18,%esp
  101b79:	5b                   	pop    %ebx
  101b7a:	c3                   	ret    
  101b7b:	8d 74 26 00          	lea    0x0(%esi,%eiz,1),%esi
  101b7f:	90                   	nop

00101b80 <pic_reset>:

void pic_reset(void)
{
  101b80:	53                   	push   %ebx
  101b81:	e8 03 e8 ff ff       	call   100389 <__x86.get_pc_thunk.bx>
  101b86:	81 c3 7a f4 00 00    	add    $0xf47a,%ebx
  101b8c:	83 ec 10             	sub    $0x10,%esp
    // mask all interrupts
    outb(IO_PIC1 + 1, 0x00);
  101b8f:	6a 00                	push   $0x0
  101b91:	6a 21                	push   $0x21
  101b93:	e8 e8 32 00 00       	call   104e80 <outb>
    outb(IO_PIC2 + 1, 0x00);
  101b98:	58                   	pop    %eax
  101b99:	5a                   	pop    %edx
  101b9a:	6a 00                	push   $0x0
  101b9c:	68 a1 00 00 00       	push   $0xa1
  101ba1:	e8 da 32 00 00       	call   104e80 <outb>

    // ICW1:  0001g0hi
    //    g:  0 = edge triggering, 1 = level triggering
    //    h:  0 = cascaded PICs, 1 = master only
    //    i:  0 = no ICW4, 1 = ICW4 required
    outb(IO_PIC1, 0x11);
  101ba6:	59                   	pop    %ecx
  101ba7:	58                   	pop    %eax
  101ba8:	6a 11                	push   $0x11
  101baa:	6a 20                	push   $0x20
  101bac:	e8 cf 32 00 00       	call   104e80 <outb>

    // ICW2:  Vector offset
    outb(IO_PIC1 + 1, T_IRQ0);
  101bb1:	58                   	pop    %eax
  101bb2:	5a                   	pop    %edx
  101bb3:	6a 20                	push   $0x20
  101bb5:	6a 21                	push   $0x21
  101bb7:	e8 c4 32 00 00       	call   104e80 <outb>

    // ICW3:  bit mask of IR lines connected to slave PICs (master PIC),
    //        3-bit No of IR line at which slave connects to master(slave PIC).
    outb(IO_PIC1 + 1, 1 << IRQ_SLAVE);
  101bbc:	59                   	pop    %ecx
  101bbd:	58                   	pop    %eax
  101bbe:	6a 04                	push   $0x4
  101bc0:	6a 21                	push   $0x21
  101bc2:	e8 b9 32 00 00       	call   104e80 <outb>
    //    m:  0 = slave PIC, 1 = master PIC
    //        (ignored when b is 0, as the master/slave role
    //        can be hardwired).
    //    a:  1 = Automatic EOI mode
    //    p:  0 = MCS-80/85 mode, 1 = intel x86 mode
    outb(IO_PIC1 + 1, 0x3);
  101bc7:	58                   	pop    %eax
  101bc8:	5a                   	pop    %edx
  101bc9:	6a 03                	push   $0x3
  101bcb:	6a 21                	push   $0x21
  101bcd:	e8 ae 32 00 00       	call   104e80 <outb>

    // Set up slave (8259A-2)
    outb(IO_PIC2, 0x11);            // ICW1
  101bd2:	59                   	pop    %ecx
  101bd3:	58                   	pop    %eax
  101bd4:	6a 11                	push   $0x11
  101bd6:	68 a0 00 00 00       	push   $0xa0
  101bdb:	e8 a0 32 00 00       	call   104e80 <outb>
    outb(IO_PIC2 + 1, T_IRQ0 + 8);  // ICW2
  101be0:	58                   	pop    %eax
  101be1:	5a                   	pop    %edx
  101be2:	6a 28                	push   $0x28
  101be4:	68 a1 00 00 00       	push   $0xa1
  101be9:	e8 92 32 00 00       	call   104e80 <outb>
    outb(IO_PIC2 + 1, IRQ_SLAVE);   // ICW3
  101bee:	59                   	pop    %ecx
  101bef:	58                   	pop    %eax
  101bf0:	6a 02                	push   $0x2
  101bf2:	68 a1 00 00 00       	push   $0xa1
  101bf7:	e8 84 32 00 00       	call   104e80 <outb>
    // NB Automatic EOI mode doesn't tend to work on the slave.
    // Linux source code says it's "to be investigated".
    outb(IO_PIC2 + 1, 0x01);        // ICW4
  101bfc:	58                   	pop    %eax
  101bfd:	5a                   	pop    %edx
  101bfe:	6a 01                	push   $0x1
  101c00:	68 a1 00 00 00       	push   $0xa1
  101c05:	e8 76 32 00 00       	call   104e80 <outb>

    // OCW3:  0ef01prs
    //   ef:  0x = NOP, 10 = clear specific mask, 11 = set specific mask
    //    p:  0 = no polling, 1 = polling mode
    //   rs:  0x = NOP, 10 = read IRR, 11 = read ISR
    outb(IO_PIC1, 0x68);  /* clear specific mask */
  101c0a:	59                   	pop    %ecx
  101c0b:	58                   	pop    %eax
  101c0c:	6a 68                	push   $0x68
  101c0e:	6a 20                	push   $0x20
  101c10:	e8 6b 32 00 00       	call   104e80 <outb>
    outb(IO_PIC1, 0x0a);  /* read IRR by default */
  101c15:	58                   	pop    %eax
  101c16:	5a                   	pop    %edx
  101c17:	6a 0a                	push   $0xa
  101c19:	6a 20                	push   $0x20
  101c1b:	e8 60 32 00 00       	call   104e80 <outb>

    outb(IO_PIC2, 0x68);  /* OCW3 */
  101c20:	59                   	pop    %ecx
  101c21:	58                   	pop    %eax
  101c22:	6a 68                	push   $0x68
  101c24:	68 a0 00 00 00       	push   $0xa0
  101c29:	e8 52 32 00 00       	call   104e80 <outb>
    outb(IO_PIC2, 0x0a);  /* OCW3 */
  101c2e:	58                   	pop    %eax
  101c2f:	5a                   	pop    %edx
  101c30:	6a 0a                	push   $0xa
  101c32:	68 a0 00 00 00       	push   $0xa0
  101c37:	e8 44 32 00 00       	call   104e80 <outb>
}
  101c3c:	83 c4 18             	add    $0x18,%esp
  101c3f:	5b                   	pop    %ebx
  101c40:	c3                   	ret    
  101c41:	66 90                	xchg   %ax,%ax
  101c43:	66 90                	xchg   %ax,%ax
  101c45:	66 90                	xchg   %ax,%ax
  101c47:	66 90                	xchg   %ax,%ax
  101c49:	66 90                	xchg   %ax,%ax
  101c4b:	66 90                	xchg   %ax,%ax
  101c4d:	66 90                	xchg   %ax,%ax
  101c4f:	90                   	nop

00101c50 <timer_hw_init>:
#define TIMER_16BIT   0x30  /* r/w counter 16 bits, LSB first */

// Initialize the programmable interval timer.

void timer_hw_init(void)
{
  101c50:	53                   	push   %ebx
  101c51:	e8 33 e7 ff ff       	call   100389 <__x86.get_pc_thunk.bx>
  101c56:	81 c3 aa f3 00 00    	add    $0xf3aa,%ebx
  101c5c:	83 ec 10             	sub    $0x10,%esp
    outb(PIT_CONTROL, TIMER_SEL0 | TIMER_RATEGEN | TIMER_16BIT);
  101c5f:	6a 34                	push   $0x34
  101c61:	6a 43                	push   $0x43
  101c63:	e8 18 32 00 00       	call   104e80 <outb>
    outb(PIT_CHANNEL0, LOW8(LATCH));
  101c68:	58                   	pop    %eax
  101c69:	5a                   	pop    %edx
  101c6a:	68 9c 00 00 00       	push   $0x9c
  101c6f:	6a 40                	push   $0x40
  101c71:	e8 0a 32 00 00       	call   104e80 <outb>
    outb(PIT_CHANNEL0, HIGH8(LATCH));
  101c76:	59                   	pop    %ecx
  101c77:	58                   	pop    %eax
  101c78:	6a 2e                	push   $0x2e
  101c7a:	6a 40                	push   $0x40
  101c7c:	e8 ff 31 00 00       	call   104e80 <outb>
}
  101c81:	83 c4 18             	add    $0x18,%esp
  101c84:	5b                   	pop    %ebx
  101c85:	c3                   	ret    
  101c86:	66 90                	xchg   %ax,%ax
  101c88:	66 90                	xchg   %ax,%ax
  101c8a:	66 90                	xchg   %ax,%ax
  101c8c:	66 90                	xchg   %ax,%ax
  101c8e:	66 90                	xchg   %ax,%ax

00101c90 <tsc_init>:
    delta = t2 - t1;
    return delta / ms;
}

int tsc_init(void)
{
  101c90:	55                   	push   %ebp
  101c91:	57                   	push   %edi
  101c92:	56                   	push   %esi
  101c93:	53                   	push   %ebx
  101c94:	e8 f0 e6 ff ff       	call   100389 <__x86.get_pc_thunk.bx>
  101c99:	81 c3 67 f3 00 00    	add    $0xf367,%ebx
  101c9f:	83 ec 4c             	sub    $0x4c,%esp
    uint64_t ret;
    int i;

    timer_hw_init();
  101ca2:	e8 a9 ff ff ff       	call   101c50 <timer_hw_init>

    tsc_per_ms = 0;
  101ca7:	c7 83 88 88 02 00 00 	movl   $0x0,0x28888(%ebx)
  101cae:	00 00 00 
  101cb1:	c7 83 8c 88 02 00 00 	movl   $0x0,0x2888c(%ebx)
  101cb8:	00 00 00 

    if (detect_kvm())
  101cbb:	e8 70 1e 00 00       	call   103b30 <detect_kvm>
  101cc0:	89 44 24 3c          	mov    %eax,0x3c(%esp)
  101cc4:	85 c0                	test   %eax,%eax
  101cc6:	0f 85 c1 02 00 00    	jne    101f8d <tsc_init+0x2fd>
  101ccc:	8d 83 90 84 ff ff    	lea    -0x7b70(%ebx),%eax

    /*
     * XXX: If TSC calibration fails frequently, try to increase the
     *      upper bound of loop condition, e.g. alternating 3 to 10.
     */
    for (i = 0; i < 10; i++) {
  101cd2:	c7 44 24 24 00 00 00 	movl   $0x0,0x24(%esp)
  101cd9:	00 
  101cda:	89 44 24 34          	mov    %eax,0x34(%esp)
  101cde:	8d 83 b5 84 ff ff    	lea    -0x7b4b(%ebx),%eax
  101ce4:	89 44 24 30          	mov    %eax,0x30(%esp)
        ret = tsc_calibrate(CAL_LATCH, CAL_MS, CAL_PIT_LOOPS);
        if (ret != ~(uint64_t) 0x0)
            break;
        KERN_DEBUG("[%d] Retry to calibrate TSC.\n", i + 1);
  101ce8:	8d 83 dd 84 ff ff    	lea    -0x7b23(%ebx),%eax
  101cee:	89 44 24 38          	mov    %eax,0x38(%esp)
  101cf2:	8d b6 00 00 00 00    	lea    0x0(%esi),%esi
    outb(0x61, (inb(0x61) & ~0x02) | 0x01);
  101cf8:	83 ec 0c             	sub    $0xc,%esp
  101cfb:	6a 61                	push   $0x61
  101cfd:	e8 4e 31 00 00       	call   104e50 <inb>
  101d02:	5e                   	pop    %esi
  101d03:	5f                   	pop    %edi
  101d04:	25 fc 00 00 00       	and    $0xfc,%eax
  101d09:	83 c8 01             	or     $0x1,%eax
  101d0c:	50                   	push   %eax
  101d0d:	6a 61                	push   $0x61
  101d0f:	e8 6c 31 00 00       	call   104e80 <outb>
    outb(0x43, 0xb0);
  101d14:	5d                   	pop    %ebp
  101d15:	58                   	pop    %eax
  101d16:	68 b0 00 00 00       	push   $0xb0
  101d1b:	6a 43                	push   $0x43
    pitcnt = 0;
  101d1d:	31 ed                	xor    %ebp,%ebp
    outb(0x43, 0xb0);
  101d1f:	e8 5c 31 00 00       	call   104e80 <outb>
    outb(0x42, latch & 0xff);
  101d24:	58                   	pop    %eax
  101d25:	5a                   	pop    %edx
  101d26:	68 9b 00 00 00       	push   $0x9b
  101d2b:	6a 42                	push   $0x42
  101d2d:	e8 4e 31 00 00       	call   104e80 <outb>
    outb(0x42, latch >> 8);
  101d32:	59                   	pop    %ecx
  101d33:	5e                   	pop    %esi
  101d34:	6a 2e                	push   $0x2e
  101d36:	6a 42                	push   $0x42
  101d38:	e8 43 31 00 00       	call   104e80 <outb>
    tsc = t1 = t2 = rdtsc();
  101d3d:	e8 ae 2f 00 00       	call   104cf0 <rdtsc>
  101d42:	89 44 24 38          	mov    %eax,0x38(%esp)
  101d46:	89 54 24 3c          	mov    %edx,0x3c(%esp)
    while ((inb(0x61) & 0x20) == 0) {
  101d4a:	83 c4 10             	add    $0x10,%esp
    tsc = t1 = t2 = rdtsc();
  101d4d:	89 44 24 18          	mov    %eax,0x18(%esp)
  101d51:	89 54 24 1c          	mov    %edx,0x1c(%esp)
    tscmax = 0;
  101d55:	c7 44 24 10 00 00 00 	movl   $0x0,0x10(%esp)
  101d5c:	00 
  101d5d:	c7 44 24 14 00 00 00 	movl   $0x0,0x14(%esp)
  101d64:	00 
    tscmin = ~(uint64_t) 0x0;
  101d65:	c7 44 24 08 ff ff ff 	movl   $0xffffffff,0x8(%esp)
  101d6c:	ff 
  101d6d:	c7 44 24 0c ff ff ff 	movl   $0xffffffff,0xc(%esp)
  101d74:	ff 
    while ((inb(0x61) & 0x20) == 0) {
  101d75:	eb 63                	jmp    101dda <tsc_init+0x14a>
  101d77:	8d b4 26 00 00 00 00 	lea    0x0(%esi,%eiz,1),%esi
  101d7e:	66 90                	xchg   %ax,%ax
        t2 = rdtsc();
  101d80:	e8 6b 2f 00 00       	call   104cf0 <rdtsc>
        delta = t2 - tsc;
  101d85:	89 c6                	mov    %eax,%esi
  101d87:	89 d7                	mov    %edx,%edi
  101d89:	2b 74 24 18          	sub    0x18(%esp),%esi
  101d8d:	1b 7c 24 1c          	sbb    0x1c(%esp),%edi
        if (delta < tscmin)
  101d91:	89 f9                	mov    %edi,%ecx
  101d93:	3b 74 24 08          	cmp    0x8(%esp),%esi
  101d97:	1b 4c 24 0c          	sbb    0xc(%esp),%ecx
        tsc = t2;
  101d9b:	89 44 24 18          	mov    %eax,0x18(%esp)
  101d9f:	8b 4c 24 08          	mov    0x8(%esp),%ecx
  101da3:	89 54 24 1c          	mov    %edx,0x1c(%esp)
  101da7:	0f 42 ce             	cmovb  %esi,%ecx
  101daa:	89 4c 24 08          	mov    %ecx,0x8(%esp)
  101dae:	8b 4c 24 0c          	mov    0xc(%esp),%ecx
  101db2:	0f 42 cf             	cmovb  %edi,%ecx
  101db5:	39 74 24 10          	cmp    %esi,0x10(%esp)
  101db9:	89 4c 24 0c          	mov    %ecx,0xc(%esp)
        if (delta > tscmax)
  101dbd:	8b 4c 24 14          	mov    0x14(%esp),%ecx
  101dc1:	19 f9                	sbb    %edi,%ecx
  101dc3:	8b 4c 24 10          	mov    0x10(%esp),%ecx
  101dc7:	0f 43 7c 24 14       	cmovae 0x14(%esp),%edi
  101dcc:	0f 42 ce             	cmovb  %esi,%ecx
  101dcf:	89 7c 24 14          	mov    %edi,0x14(%esp)
        pitcnt++;
  101dd3:	83 c5 01             	add    $0x1,%ebp
  101dd6:	89 4c 24 10          	mov    %ecx,0x10(%esp)
    while ((inb(0x61) & 0x20) == 0) {
  101dda:	83 ec 0c             	sub    $0xc,%esp
  101ddd:	6a 61                	push   $0x61
  101ddf:	e8 6c 30 00 00       	call   104e50 <inb>
  101de4:	83 c4 10             	add    $0x10,%esp
  101de7:	a8 20                	test   $0x20,%al
  101de9:	74 95                	je     101d80 <tsc_init+0xf0>
    KERN_DEBUG("pitcnt=%u, tscmin=%llu, tscmax=%llu\n",
  101deb:	8b 74 24 10          	mov    0x10(%esp),%esi
  101def:	8b 7c 24 14          	mov    0x14(%esp),%edi
  101df3:	57                   	push   %edi
  101df4:	56                   	push   %esi
  101df5:	ff 74 24 14          	push   0x14(%esp)
  101df9:	ff 74 24 14          	push   0x14(%esp)
  101dfd:	55                   	push   %ebp
  101dfe:	ff 74 24 48          	push   0x48(%esp)
  101e02:	6a 39                	push   $0x39
  101e04:	ff 74 24 4c          	push   0x4c(%esp)
  101e08:	e8 e3 21 00 00       	call   103ff0 <debug_normal>
    if (pitcnt < loopmin || tscmax > 10 * tscmin)
  101e0d:	83 c4 20             	add    $0x20,%esp
  101e10:	81 fd e7 03 00 00    	cmp    $0x3e7,%ebp
  101e16:	0f 8e f4 00 00 00    	jle    101f10 <tsc_init+0x280>
  101e1c:	6b 4c 24 0c 0a       	imul   $0xa,0xc(%esp),%ecx
  101e21:	b8 0a 00 00 00       	mov    $0xa,%eax
  101e26:	f7 64 24 08          	mull   0x8(%esp)
  101e2a:	01 ca                	add    %ecx,%edx
  101e2c:	39 f0                	cmp    %esi,%eax
  101e2e:	89 d0                	mov    %edx,%eax
  101e30:	19 f8                	sbb    %edi,%eax
  101e32:	0f 82 d8 00 00 00    	jb     101f10 <tsc_init+0x280>
    delta = t2 - t1;
  101e38:	8b 44 24 18          	mov    0x18(%esp),%eax
  101e3c:	8b 54 24 1c          	mov    0x1c(%esp),%edx
    return delta / ms;
  101e40:	b9 cd cc cc cc       	mov    $0xcccccccd,%ecx
    delta = t2 - t1;
  101e45:	2b 44 24 28          	sub    0x28(%esp),%eax
  101e49:	1b 54 24 2c          	sbb    0x2c(%esp),%edx
    return delta / ms;
  101e4d:	89 54 24 0c          	mov    %edx,0xc(%esp)
  101e51:	89 c6                	mov    %eax,%esi
  101e53:	03 74 24 0c          	add    0xc(%esp),%esi
  101e57:	83 d6 00             	adc    $0x0,%esi
  101e5a:	89 44 24 08          	mov    %eax,0x8(%esp)
  101e5e:	89 f0                	mov    %esi,%eax
  101e60:	f7 e1                	mul    %ecx
  101e62:	8b 44 24 08          	mov    0x8(%esp),%eax
  101e66:	89 d7                	mov    %edx,%edi
  101e68:	83 e2 fc             	and    $0xfffffffc,%edx
  101e6b:	c1 ef 02             	shr    $0x2,%edi
  101e6e:	01 fa                	add    %edi,%edx
  101e70:	31 ff                	xor    %edi,%edi
  101e72:	29 d6                	sub    %edx,%esi
  101e74:	8b 54 24 0c          	mov    0xc(%esp),%edx
  101e78:	29 f0                	sub    %esi,%eax
  101e7a:	19 fa                	sbb    %edi,%edx

        timer_hw_init();
        return 1;
    } else {
        tsc_per_ms = ret;
        KERN_DEBUG("TSC freq = %u.%03u MHz.\n",tsc_per_ms / 1000, tsc_per_ms % 1000);
  101e7c:	83 ec 10             	sub    $0x10,%esp
    return delta / ms;
  101e7f:	69 f2 cd cc cc cc    	imul   $0xcccccccd,%edx,%esi
        KERN_DEBUG("TSC freq = %u.%03u MHz.\n",tsc_per_ms / 1000, tsc_per_ms % 1000);
  101e85:	6a 00                	push   $0x0
    return delta / ms;
  101e87:	69 d0 cc cc cc cc    	imul   $0xcccccccc,%eax,%edx
        KERN_DEBUG("TSC freq = %u.%03u MHz.\n",tsc_per_ms / 1000, tsc_per_ms % 1000);
  101e8d:	68 e8 03 00 00       	push   $0x3e8
    return delta / ms;
  101e92:	01 d6                	add    %edx,%esi
  101e94:	f7 e1                	mul    %ecx
  101e96:	01 f2                	add    %esi,%edx
  101e98:	0f ac d0 01          	shrd   $0x1,%edx,%eax
  101e9c:	d1 ea                	shr    %edx
        tsc_per_ms = ret;
  101e9e:	89 83 88 88 02 00    	mov    %eax,0x28888(%ebx)
  101ea4:	89 93 8c 88 02 00    	mov    %edx,0x2888c(%ebx)
        KERN_DEBUG("TSC freq = %u.%03u MHz.\n",tsc_per_ms / 1000, tsc_per_ms % 1000);
  101eaa:	8b 83 88 88 02 00    	mov    0x28888(%ebx),%eax
  101eb0:	8b 93 8c 88 02 00    	mov    0x2888c(%ebx),%edx
  101eb6:	8b b3 88 88 02 00    	mov    0x28888(%ebx),%esi
  101ebc:	8b bb 8c 88 02 00    	mov    0x2888c(%ebx),%edi
  101ec2:	52                   	push   %edx
  101ec3:	50                   	push   %eax
  101ec4:	e8 e7 69 00 00       	call   1088b0 <__umoddi3>
  101ec9:	83 c4 1c             	add    $0x1c,%esp
  101ecc:	52                   	push   %edx
  101ecd:	50                   	push   %eax
  101ece:	83 ec 04             	sub    $0x4,%esp
  101ed1:	6a 00                	push   $0x0
  101ed3:	68 e8 03 00 00       	push   $0x3e8
  101ed8:	57                   	push   %edi
  101ed9:	56                   	push   %esi
  101eda:	e8 b1 68 00 00       	call   108790 <__udivdi3>
  101edf:	83 c4 14             	add    $0x14,%esp
  101ee2:	52                   	push   %edx
  101ee3:	50                   	push   %eax
  101ee4:	8d 83 c4 84 ff ff    	lea    -0x7b3c(%ebx),%eax
  101eea:	50                   	push   %eax
  101eeb:	6a 68                	push   $0x68
  101eed:	ff 74 24 4c          	push   0x4c(%esp)
  101ef1:	e8 fa 20 00 00       	call   103ff0 <debug_normal>

        timer_hw_init();
  101ef6:	83 c4 20             	add    $0x20,%esp
  101ef9:	e8 52 fd ff ff       	call   101c50 <timer_hw_init>
        return 0;
    }
}
  101efe:	8b 44 24 3c          	mov    0x3c(%esp),%eax
  101f02:	83 c4 4c             	add    $0x4c,%esp
  101f05:	5b                   	pop    %ebx
  101f06:	5e                   	pop    %esi
  101f07:	5f                   	pop    %edi
  101f08:	5d                   	pop    %ebp
  101f09:	c3                   	ret    
  101f0a:	8d b6 00 00 00 00    	lea    0x0(%esi),%esi
        KERN_DEBUG("[%d] Retry to calibrate TSC.\n", i + 1);
  101f10:	83 44 24 24 01       	addl   $0x1,0x24(%esp)
  101f15:	8b 7c 24 24          	mov    0x24(%esp),%edi
  101f19:	57                   	push   %edi
  101f1a:	ff 74 24 3c          	push   0x3c(%esp)
  101f1e:	6a 5c                	push   $0x5c
  101f20:	ff 74 24 3c          	push   0x3c(%esp)
  101f24:	e8 c7 20 00 00       	call   103ff0 <debug_normal>
    for (i = 0; i < 10; i++) {
  101f29:	83 c4 10             	add    $0x10,%esp
  101f2c:	83 ff 0a             	cmp    $0xa,%edi
  101f2f:	0f 85 c3 fd ff ff    	jne    101cf8 <tsc_init+0x68>
        KERN_DEBUG("TSC calibration failed.\n");
  101f35:	83 ec 04             	sub    $0x4,%esp
  101f38:	8d 83 fb 84 ff ff    	lea    -0x7b05(%ebx),%eax
  101f3e:	50                   	push   %eax
  101f3f:	6a 60                	push   $0x60
  101f41:	8b 7c 24 3c          	mov    0x3c(%esp),%edi
  101f45:	57                   	push   %edi
  101f46:	e8 a5 20 00 00       	call   103ff0 <debug_normal>
        KERN_DEBUG("Assume TSC freq = 1 GHz.\n");
  101f4b:	83 c4 0c             	add    $0xc,%esp
  101f4e:	8d 83 14 85 ff ff    	lea    -0x7aec(%ebx),%eax
  101f54:	50                   	push   %eax
  101f55:	6a 61                	push   $0x61
  101f57:	57                   	push   %edi
  101f58:	e8 93 20 00 00       	call   103ff0 <debug_normal>
        tsc_per_ms = 1000000;
  101f5d:	c7 83 88 88 02 00 40 	movl   $0xf4240,0x28888(%ebx)
  101f64:	42 0f 00 
  101f67:	c7 83 8c 88 02 00 00 	movl   $0x0,0x2888c(%ebx)
  101f6e:	00 00 00 
        timer_hw_init();
  101f71:	e8 da fc ff ff       	call   101c50 <timer_hw_init>
        return 1;
  101f76:	83 c4 10             	add    $0x10,%esp
  101f79:	c7 44 24 3c 01 00 00 	movl   $0x1,0x3c(%esp)
  101f80:	00 
}
  101f81:	8b 44 24 3c          	mov    0x3c(%esp),%eax
  101f85:	83 c4 4c             	add    $0x4c,%esp
  101f88:	5b                   	pop    %ebx
  101f89:	5e                   	pop    %esi
  101f8a:	5f                   	pop    %edi
  101f8b:	5d                   	pop    %ebp
  101f8c:	c3                   	ret    
		tsc_per_ms = kvm_get_tsc_hz() / 1000llu;
  101f8d:	e8 de 1c 00 00       	call   103c70 <kvm_get_tsc_hz>
  101f92:	6a 00                	push   $0x0
  101f94:	68 e8 03 00 00       	push   $0x3e8
  101f99:	52                   	push   %edx
  101f9a:	50                   	push   %eax
  101f9b:	e8 f0 67 00 00       	call   108790 <__udivdi3>
		KERN_INFO ("TSC read from KVM: %u.%03u MHz.\n",
  101fa0:	6a 00                	push   $0x0
		tsc_per_ms = kvm_get_tsc_hz() / 1000llu;
  101fa2:	89 83 88 88 02 00    	mov    %eax,0x28888(%ebx)
  101fa8:	89 93 8c 88 02 00    	mov    %edx,0x2888c(%ebx)
		KERN_INFO ("TSC read from KVM: %u.%03u MHz.\n",
  101fae:	8b 83 88 88 02 00    	mov    0x28888(%ebx),%eax
  101fb4:	8b 93 8c 88 02 00    	mov    0x2888c(%ebx),%edx
  101fba:	68 e8 03 00 00       	push   $0x3e8
  101fbf:	8b b3 88 88 02 00    	mov    0x28888(%ebx),%esi
  101fc5:	8b bb 8c 88 02 00    	mov    0x2888c(%ebx),%edi
  101fcb:	52                   	push   %edx
  101fcc:	50                   	push   %eax
  101fcd:	e8 de 68 00 00       	call   1088b0 <__umoddi3>
  101fd2:	83 c4 14             	add    $0x14,%esp
  101fd5:	52                   	push   %edx
  101fd6:	50                   	push   %eax
  101fd7:	83 ec 0c             	sub    $0xc,%esp
  101fda:	6a 00                	push   $0x0
  101fdc:	68 e8 03 00 00       	push   $0x3e8
  101fe1:	57                   	push   %edi
  101fe2:	56                   	push   %esi
  101fe3:	e8 a8 67 00 00       	call   108790 <__udivdi3>
  101fe8:	83 c4 1c             	add    $0x1c,%esp
  101feb:	52                   	push   %edx
  101fec:	50                   	push   %eax
  101fed:	8d 83 6c 84 ff ff    	lea    -0x7b94(%ebx),%eax
  101ff3:	50                   	push   %eax
  101ff4:	e8 c7 1f 00 00       	call   103fc0 <debug_info>
		return (0);
  101ff9:	83 c4 20             	add    $0x20,%esp
  101ffc:	c7 44 24 3c 00 00 00 	movl   $0x0,0x3c(%esp)
  102003:	00 
}
  102004:	8b 44 24 3c          	mov    0x3c(%esp),%eax
  102008:	83 c4 4c             	add    $0x4c,%esp
  10200b:	5b                   	pop    %ebx
  10200c:	5e                   	pop    %esi
  10200d:	5f                   	pop    %edi
  10200e:	5d                   	pop    %ebp
  10200f:	c3                   	ret    

00102010 <delay>:

/*
 * Wait for ms millisecond.
 */
void delay(uint32_t ms)
{
  102010:	55                   	push   %ebp
  102011:	57                   	push   %edi
  102012:	56                   	push   %esi
  102013:	53                   	push   %ebx
  102014:	e8 70 e3 ff ff       	call   100389 <__x86.get_pc_thunk.bx>
  102019:	81 c3 e7 ef 00 00    	add    $0xefe7,%ebx
  10201f:	83 ec 1c             	sub    $0x1c,%esp
  102022:	8b 44 24 30          	mov    0x30(%esp),%eax
    volatile uint64_t ticks = tsc_per_ms * ms;
  102026:	8b b3 88 88 02 00    	mov    0x28888(%ebx),%esi
  10202c:	8b 8b 8c 88 02 00    	mov    0x2888c(%ebx),%ecx
  102032:	0f af c8             	imul   %eax,%ecx
  102035:	f7 e6                	mul    %esi
  102037:	01 ca                	add    %ecx,%edx
  102039:	89 04 24             	mov    %eax,(%esp)
  10203c:	89 54 24 04          	mov    %edx,0x4(%esp)
    volatile uint64_t start = rdtsc();
  102040:	e8 ab 2c 00 00       	call   104cf0 <rdtsc>
  102045:	89 44 24 08          	mov    %eax,0x8(%esp)
  102049:	89 54 24 0c          	mov    %edx,0xc(%esp)
    while (rdtsc() < start + ticks);
  10204d:	8d 76 00             	lea    0x0(%esi),%esi
  102050:	e8 9b 2c 00 00       	call   104cf0 <rdtsc>
  102055:	89 c1                	mov    %eax,%ecx
  102057:	89 d5                	mov    %edx,%ebp
  102059:	8b 44 24 08          	mov    0x8(%esp),%eax
  10205d:	8b 54 24 0c          	mov    0xc(%esp),%edx
  102061:	8b 34 24             	mov    (%esp),%esi
  102064:	8b 7c 24 04          	mov    0x4(%esp),%edi
  102068:	01 f0                	add    %esi,%eax
  10206a:	11 fa                	adc    %edi,%edx
  10206c:	39 c1                	cmp    %eax,%ecx
  10206e:	19 d5                	sbb    %edx,%ebp
  102070:	72 de                	jb     102050 <delay+0x40>
}
  102072:	83 c4 1c             	add    $0x1c,%esp
  102075:	5b                   	pop    %ebx
  102076:	5e                   	pop    %esi
  102077:	5f                   	pop    %edi
  102078:	5d                   	pop    %ebp
  102079:	c3                   	ret    
  10207a:	8d b6 00 00 00 00    	lea    0x0(%esi),%esi

00102080 <udelay>:

/*
 * Wait for us microsecond.
 */
void udelay(uint32_t us)
{
  102080:	55                   	push   %ebp
  102081:	57                   	push   %edi
  102082:	56                   	push   %esi
  102083:	53                   	push   %ebx
  102084:	e8 00 e3 ff ff       	call   100389 <__x86.get_pc_thunk.bx>
  102089:	81 c3 77 ef 00 00    	add    $0xef77,%ebx
  10208f:	83 ec 1c             	sub    $0x1c,%esp
  102092:	8b 74 24 30          	mov    0x30(%esp),%esi
    volatile uint64_t ticks = tsc_per_ms / 1000 * us;
  102096:	6a 00                	push   $0x0
  102098:	68 e8 03 00 00       	push   $0x3e8
  10209d:	8b 83 88 88 02 00    	mov    0x28888(%ebx),%eax
  1020a3:	8b 93 8c 88 02 00    	mov    0x2888c(%ebx),%edx
  1020a9:	52                   	push   %edx
  1020aa:	50                   	push   %eax
  1020ab:	e8 e0 66 00 00       	call   108790 <__udivdi3>
  1020b0:	83 c4 10             	add    $0x10,%esp
  1020b3:	89 d1                	mov    %edx,%ecx
  1020b5:	f7 e6                	mul    %esi
  1020b7:	0f af ce             	imul   %esi,%ecx
  1020ba:	89 04 24             	mov    %eax,(%esp)
  1020bd:	01 ca                	add    %ecx,%edx
  1020bf:	89 54 24 04          	mov    %edx,0x4(%esp)
    volatile uint64_t start = rdtsc();
  1020c3:	e8 28 2c 00 00       	call   104cf0 <rdtsc>
  1020c8:	89 44 24 08          	mov    %eax,0x8(%esp)
  1020cc:	89 54 24 0c          	mov    %edx,0xc(%esp)
    while (rdtsc() < start + ticks);
  1020d0:	e8 1b 2c 00 00       	call   104cf0 <rdtsc>
  1020d5:	89 c1                	mov    %eax,%ecx
  1020d7:	89 d5                	mov    %edx,%ebp
  1020d9:	8b 44 24 08          	mov    0x8(%esp),%eax
  1020dd:	8b 54 24 0c          	mov    0xc(%esp),%edx
  1020e1:	8b 34 24             	mov    (%esp),%esi
  1020e4:	8b 7c 24 04          	mov    0x4(%esp),%edi
  1020e8:	01 f0                	add    %esi,%eax
  1020ea:	11 fa                	adc    %edi,%edx
  1020ec:	39 c1                	cmp    %eax,%ecx
  1020ee:	19 d5                	sbb    %edx,%ebp
  1020f0:	72 de                	jb     1020d0 <udelay+0x50>
}
  1020f2:	83 c4 1c             	add    $0x1c,%esp
  1020f5:	5b                   	pop    %ebx
  1020f6:	5e                   	pop    %esi
  1020f7:	5f                   	pop    %edi
  1020f8:	5d                   	pop    %ebp
  1020f9:	c3                   	ret    
  1020fa:	66 90                	xchg   %ax,%ax
  1020fc:	66 90                	xchg   %ax,%ax
  1020fe:	66 90                	xchg   %ax,%ax

00102100 <Xdivide>:
	jmp	_alltraps

.text

/* exceptions  */
TRAPHANDLER_NOEC(Xdivide,	T_DIVIDE)
  102100:	6a 00                	push   $0x0
  102102:	6a 00                	push   $0x0
  102104:	e9 17 01 00 00       	jmp    102220 <_alltraps>
  102109:	90                   	nop

0010210a <Xdebug>:
TRAPHANDLER_NOEC(Xdebug,	T_DEBUG)
  10210a:	6a 00                	push   $0x0
  10210c:	6a 01                	push   $0x1
  10210e:	e9 0d 01 00 00       	jmp    102220 <_alltraps>
  102113:	90                   	nop

00102114 <Xnmi>:
TRAPHANDLER_NOEC(Xnmi,		T_NMI)
  102114:	6a 00                	push   $0x0
  102116:	6a 02                	push   $0x2
  102118:	e9 03 01 00 00       	jmp    102220 <_alltraps>
  10211d:	90                   	nop

0010211e <Xbrkpt>:
TRAPHANDLER_NOEC(Xbrkpt,	T_BRKPT)
  10211e:	6a 00                	push   $0x0
  102120:	6a 03                	push   $0x3
  102122:	e9 f9 00 00 00       	jmp    102220 <_alltraps>
  102127:	90                   	nop

00102128 <Xoflow>:
TRAPHANDLER_NOEC(Xoflow,	T_OFLOW)
  102128:	6a 00                	push   $0x0
  10212a:	6a 04                	push   $0x4
  10212c:	e9 ef 00 00 00       	jmp    102220 <_alltraps>
  102131:	90                   	nop

00102132 <Xbound>:
TRAPHANDLER_NOEC(Xbound,	T_BOUND)
  102132:	6a 00                	push   $0x0
  102134:	6a 05                	push   $0x5
  102136:	e9 e5 00 00 00       	jmp    102220 <_alltraps>
  10213b:	90                   	nop

0010213c <Xillop>:
TRAPHANDLER_NOEC(Xillop,	T_ILLOP)
  10213c:	6a 00                	push   $0x0
  10213e:	6a 06                	push   $0x6
  102140:	e9 db 00 00 00       	jmp    102220 <_alltraps>
  102145:	90                   	nop

00102146 <Xdevice>:
TRAPHANDLER_NOEC(Xdevice,	T_DEVICE)
  102146:	6a 00                	push   $0x0
  102148:	6a 07                	push   $0x7
  10214a:	e9 d1 00 00 00       	jmp    102220 <_alltraps>
  10214f:	90                   	nop

00102150 <Xdblflt>:
TRAPHANDLER     (Xdblflt,	T_DBLFLT)
  102150:	6a 08                	push   $0x8
  102152:	e9 c9 00 00 00       	jmp    102220 <_alltraps>
  102157:	90                   	nop

00102158 <Xcoproc>:
TRAPHANDLER_NOEC(Xcoproc,	T_COPROC)
  102158:	6a 00                	push   $0x0
  10215a:	6a 09                	push   $0x9
  10215c:	e9 bf 00 00 00       	jmp    102220 <_alltraps>
  102161:	90                   	nop

00102162 <Xtss>:
TRAPHANDLER     (Xtss,		T_TSS)
  102162:	6a 0a                	push   $0xa
  102164:	e9 b7 00 00 00       	jmp    102220 <_alltraps>
  102169:	90                   	nop

0010216a <Xsegnp>:
TRAPHANDLER     (Xsegnp,	T_SEGNP)
  10216a:	6a 0b                	push   $0xb
  10216c:	e9 af 00 00 00       	jmp    102220 <_alltraps>
  102171:	90                   	nop

00102172 <Xstack>:
TRAPHANDLER     (Xstack,	T_STACK)
  102172:	6a 0c                	push   $0xc
  102174:	e9 a7 00 00 00       	jmp    102220 <_alltraps>
  102179:	90                   	nop

0010217a <Xgpflt>:
TRAPHANDLER     (Xgpflt,	T_GPFLT)
  10217a:	6a 0d                	push   $0xd
  10217c:	e9 9f 00 00 00       	jmp    102220 <_alltraps>
  102181:	90                   	nop

00102182 <Xpgflt>:
TRAPHANDLER     (Xpgflt,	T_PGFLT)
  102182:	6a 0e                	push   $0xe
  102184:	e9 97 00 00 00       	jmp    102220 <_alltraps>
  102189:	90                   	nop

0010218a <Xres>:
TRAPHANDLER_NOEC(Xres,		T_RES)
  10218a:	6a 00                	push   $0x0
  10218c:	6a 0f                	push   $0xf
  10218e:	e9 8d 00 00 00       	jmp    102220 <_alltraps>
  102193:	90                   	nop

00102194 <Xfperr>:
TRAPHANDLER_NOEC(Xfperr,	T_FPERR)
  102194:	6a 00                	push   $0x0
  102196:	6a 10                	push   $0x10
  102198:	e9 83 00 00 00       	jmp    102220 <_alltraps>
  10219d:	90                   	nop

0010219e <Xalign>:
TRAPHANDLER     (Xalign,	T_ALIGN)
  10219e:	6a 11                	push   $0x11
  1021a0:	eb 7e                	jmp    102220 <_alltraps>

001021a2 <Xmchk>:
TRAPHANDLER_NOEC(Xmchk,		T_MCHK)
  1021a2:	6a 00                	push   $0x0
  1021a4:	6a 12                	push   $0x12
  1021a6:	eb 78                	jmp    102220 <_alltraps>

001021a8 <Xirq_timer>:

/* ISA interrupts  */
TRAPHANDLER_NOEC(Xirq_timer,	T_IRQ0 + IRQ_TIMER)
  1021a8:	6a 00                	push   $0x0
  1021aa:	6a 20                	push   $0x20
  1021ac:	eb 72                	jmp    102220 <_alltraps>

001021ae <Xirq_kbd>:
TRAPHANDLER_NOEC(Xirq_kbd,	T_IRQ0 + IRQ_KBD)
  1021ae:	6a 00                	push   $0x0
  1021b0:	6a 21                	push   $0x21
  1021b2:	eb 6c                	jmp    102220 <_alltraps>

001021b4 <Xirq_slave>:
TRAPHANDLER_NOEC(Xirq_slave,	T_IRQ0 + IRQ_SLAVE)
  1021b4:	6a 00                	push   $0x0
  1021b6:	6a 22                	push   $0x22
  1021b8:	eb 66                	jmp    102220 <_alltraps>

001021ba <Xirq_serial2>:
TRAPHANDLER_NOEC(Xirq_serial2,	T_IRQ0 + IRQ_SERIAL24)
  1021ba:	6a 00                	push   $0x0
  1021bc:	6a 23                	push   $0x23
  1021be:	eb 60                	jmp    102220 <_alltraps>

001021c0 <Xirq_serial1>:
TRAPHANDLER_NOEC(Xirq_serial1,	T_IRQ0 + IRQ_SERIAL13)
  1021c0:	6a 00                	push   $0x0
  1021c2:	6a 24                	push   $0x24
  1021c4:	eb 5a                	jmp    102220 <_alltraps>

001021c6 <Xirq_lpt>:
TRAPHANDLER_NOEC(Xirq_lpt,	T_IRQ0 + IRQ_LPT2)
  1021c6:	6a 00                	push   $0x0
  1021c8:	6a 25                	push   $0x25
  1021ca:	eb 54                	jmp    102220 <_alltraps>

001021cc <Xirq_floppy>:
TRAPHANDLER_NOEC(Xirq_floppy,	T_IRQ0 + IRQ_FLOPPY)
  1021cc:	6a 00                	push   $0x0
  1021ce:	6a 26                	push   $0x26
  1021d0:	eb 4e                	jmp    102220 <_alltraps>

001021d2 <Xirq_spurious>:
TRAPHANDLER_NOEC(Xirq_spurious,	T_IRQ0 + IRQ_SPURIOUS)
  1021d2:	6a 00                	push   $0x0
  1021d4:	6a 27                	push   $0x27
  1021d6:	eb 48                	jmp    102220 <_alltraps>

001021d8 <Xirq_rtc>:
TRAPHANDLER_NOEC(Xirq_rtc,	T_IRQ0 + IRQ_RTC)
  1021d8:	6a 00                	push   $0x0
  1021da:	6a 28                	push   $0x28
  1021dc:	eb 42                	jmp    102220 <_alltraps>

001021de <Xirq9>:
TRAPHANDLER_NOEC(Xirq9,		T_IRQ0 + 9)
  1021de:	6a 00                	push   $0x0
  1021e0:	6a 29                	push   $0x29
  1021e2:	eb 3c                	jmp    102220 <_alltraps>

001021e4 <Xirq10>:
TRAPHANDLER_NOEC(Xirq10,	T_IRQ0 + 10)
  1021e4:	6a 00                	push   $0x0
  1021e6:	6a 2a                	push   $0x2a
  1021e8:	eb 36                	jmp    102220 <_alltraps>

001021ea <Xirq11>:
TRAPHANDLER_NOEC(Xirq11,	T_IRQ0 + 11)
  1021ea:	6a 00                	push   $0x0
  1021ec:	6a 2b                	push   $0x2b
  1021ee:	eb 30                	jmp    102220 <_alltraps>

001021f0 <Xirq_mouse>:
TRAPHANDLER_NOEC(Xirq_mouse,	T_IRQ0 + IRQ_MOUSE)
  1021f0:	6a 00                	push   $0x0
  1021f2:	6a 2c                	push   $0x2c
  1021f4:	eb 2a                	jmp    102220 <_alltraps>

001021f6 <Xirq_coproc>:
TRAPHANDLER_NOEC(Xirq_coproc,	T_IRQ0 + IRQ_COPROCESSOR)
  1021f6:	6a 00                	push   $0x0
  1021f8:	6a 2d                	push   $0x2d
  1021fa:	eb 24                	jmp    102220 <_alltraps>

001021fc <Xirq_ide1>:
TRAPHANDLER_NOEC(Xirq_ide1,	T_IRQ0 + IRQ_IDE1)
  1021fc:	6a 00                	push   $0x0
  1021fe:	6a 2e                	push   $0x2e
  102200:	eb 1e                	jmp    102220 <_alltraps>

00102202 <Xirq_ide2>:
TRAPHANDLER_NOEC(Xirq_ide2,	T_IRQ0 + IRQ_IDE2)
  102202:	6a 00                	push   $0x0
  102204:	6a 2f                	push   $0x2f
  102206:	eb 18                	jmp    102220 <_alltraps>

00102208 <Xsyscall>:

/* syscall */
TRAPHANDLER_NOEC(Xsyscall,	T_SYSCALL)
  102208:	6a 00                	push   $0x0
  10220a:	6a 30                	push   $0x30
  10220c:	eb 12                	jmp    102220 <_alltraps>

0010220e <Xdefault>:

/* default ? */
TRAPHANDLER     (Xdefault,	T_DEFAULT)
  10220e:	68 fe 00 00 00       	push   $0xfe
  102213:	eb 0b                	jmp    102220 <_alltraps>
  102215:	8d b4 26 00 00 00 00 	lea    0x0(%esi,%eiz,1),%esi
  10221c:	8d 74 26 00          	lea    0x0(%esi,%eiz,1),%esi

00102220 <_alltraps>:

	.globl _alltraps
	.type _alltraps, @function
	.p2align 4, 0x90	/* 16-byte alignment, nop filled */
_alltraps:
	cli			# make sure there is no nested trap
  102220:	fa                   	cli    
	cld
  102221:	fc                   	cld    

	pushl	%ds		# build context
  102222:	1e                   	push   %ds
	pushl	%es
  102223:	06                   	push   %es
	pushal
  102224:	60                   	pusha  

	movl	$CPU_GDT_KDATA, %eax	# load kernel's data segment
  102225:	b8 10 00 00 00       	mov    $0x10,%eax
	movw	%ax, %ds
  10222a:	8e d8                	mov    %eax,%ds
	movw	%ax, %es
  10222c:	8e c0                	mov    %eax,%es

	pushl	%esp		# pass pointer to this trapframe
  10222e:	54                   	push   %esp

	call	trap		# and call trap (does not return)
  10222f:	e8 bc 60 00 00       	call   1082f0 <trap>

1:	hlt			# should never get here; just spin...
  102234:	f4                   	hlt    
  102235:	8d b4 26 00 00 00 00 	lea    0x0(%esi,%eiz,1),%esi
  10223c:	8d 74 26 00          	lea    0x0(%esi,%eiz,1),%esi

00102240 <trap_return>:
//
	.globl trap_return
	.type trap_return, @function
	.p2align 4, 0x90	/* 16-byte alignment, nop filled */
trap_return:
	movl	4(%esp), %esp	// reset stack pointer to point to trap frame
  102240:	8b 64 24 04          	mov    0x4(%esp),%esp
	popal			// restore general-purpose registers except esp
  102244:	61                   	popa   
	popl	%es		// restore data segment registers
  102245:	07                   	pop    %es
	popl	%ds
  102246:	1f                   	pop    %ds
	addl	$8, %esp	// skip tf_trapno and tf_errcode
  102247:	83 c4 08             	add    $0x8,%esp
	iret			// return from trap handler
  10224a:	cf                   	iret   
  10224b:	66 90                	xchg   %ax,%ax
  10224d:	66 90                	xchg   %ax,%ax
  10224f:	90                   	nop

00102250 <acpi_probe_rsdp>:

    return NULL;
}

acpi_rsdp_t *acpi_probe_rsdp(void)
{
  102250:	57                   	push   %edi
  102251:	56                   	push   %esi
  102252:	53                   	push   %ebx
    uint8_t *bda;
    uint32_t p;
    acpi_rsdp_t *rsdp;

    bda = (uint8_t *) 0x400;
    if ((p = ((bda[0x0F] << 8) | bda[0x0E]) << 4)) {
  102253:	0f b6 05 0f 04 00 00 	movzbl 0x40f,%eax
  10225a:	0f b6 15 0e 04 00 00 	movzbl 0x40e,%edx
  102261:	c1 e0 08             	shl    $0x8,%eax
  102264:	09 d0                	or     %edx,%eax
  102266:	c1 e0 04             	shl    $0x4,%eax
  102269:	74 4d                	je     1022b8 <acpi_probe_rsdp+0x68>
        if (*(uint32_t *) p == ACPI_RSDP_SIG1 &&
  10226b:	81 38 52 53 44 20    	cmpl   $0x20445352,(%eax)
    e = addr + length;
  102271:	8d 88 00 04 00 00    	lea    0x400(%eax),%ecx
        if (*(uint32_t *) p == ACPI_RSDP_SIG1 &&
  102277:	74 16                	je     10228f <acpi_probe_rsdp+0x3f>
  102279:	8d b4 26 00 00 00 00 	lea    0x0(%esi,%eiz,1),%esi
    for (p = addr; p < e; p += 16) {
  102280:	83 c0 10             	add    $0x10,%eax
  102283:	39 c1                	cmp    %eax,%ecx
  102285:	76 31                	jbe    1022b8 <acpi_probe_rsdp+0x68>
        if (*(uint32_t *) p == ACPI_RSDP_SIG1 &&
  102287:	81 38 52 53 44 20    	cmpl   $0x20445352,(%eax)
  10228d:	75 f1                	jne    102280 <acpi_probe_rsdp+0x30>
  10228f:	81 78 04 50 54 52 20 	cmpl   $0x20525450,0x4(%eax)
  102296:	75 e8                	jne    102280 <acpi_probe_rsdp+0x30>
  102298:	89 c2                	mov    %eax,%edx
    sum = 0;
  10229a:	31 db                	xor    %ebx,%ebx
  10229c:	8d 70 24             	lea    0x24(%eax),%esi
  10229f:	90                   	nop
        sum += addr[i];
  1022a0:	0f b6 3a             	movzbl (%edx),%edi
    for (i = 0; i < len; i++) {
  1022a3:	83 c2 01             	add    $0x1,%edx
        sum += addr[i];
  1022a6:	01 fb                	add    %edi,%ebx
    for (i = 0; i < len; i++) {
  1022a8:	39 d6                	cmp    %edx,%esi
  1022aa:	75 f4                	jne    1022a0 <acpi_probe_rsdp+0x50>
            *(uint32_t *) (p + 4) == ACPI_RSDP_SIG2 &&
  1022ac:	84 db                	test   %bl,%bl
  1022ae:	75 d0                	jne    102280 <acpi_probe_rsdp+0x30>
        if ((rsdp = acpi_probe_rsdp_aux((uint8_t *) p, 1024)))
            return rsdp;
    }

    return acpi_probe_rsdp_aux((uint8_t *) 0xE0000, 0x1FFFF);
}
  1022b0:	5b                   	pop    %ebx
  1022b1:	5e                   	pop    %esi
  1022b2:	5f                   	pop    %edi
  1022b3:	c3                   	ret    
  1022b4:	8d 74 26 00          	lea    0x0(%esi,%eiz,1),%esi
  1022b8:	b8 00 00 0e 00       	mov    $0xe0000,%eax
  1022bd:	eb 0b                	jmp    1022ca <acpi_probe_rsdp+0x7a>
  1022bf:	90                   	nop
    for (p = addr; p < e; p += 16) {
  1022c0:	83 c0 10             	add    $0x10,%eax
  1022c3:	3d 00 00 10 00       	cmp    $0x100000,%eax
  1022c8:	74 38                	je     102302 <acpi_probe_rsdp+0xb2>
        if (*(uint32_t *) p == ACPI_RSDP_SIG1 &&
  1022ca:	81 38 52 53 44 20    	cmpl   $0x20445352,(%eax)
  1022d0:	75 ee                	jne    1022c0 <acpi_probe_rsdp+0x70>
  1022d2:	81 78 04 50 54 52 20 	cmpl   $0x20525450,0x4(%eax)
  1022d9:	75 e5                	jne    1022c0 <acpi_probe_rsdp+0x70>
  1022db:	89 c2                	mov    %eax,%edx
    sum = 0;
  1022dd:	31 c9                	xor    %ecx,%ecx
  1022df:	8d 70 24             	lea    0x24(%eax),%esi
  1022e2:	8d b6 00 00 00 00    	lea    0x0(%esi),%esi
        sum += addr[i];
  1022e8:	0f b6 1a             	movzbl (%edx),%ebx
    for (i = 0; i < len; i++) {
  1022eb:	83 c2 01             	add    $0x1,%edx
        sum += addr[i];
  1022ee:	01 d9                	add    %ebx,%ecx
    for (i = 0; i < len; i++) {
  1022f0:	39 f2                	cmp    %esi,%edx
  1022f2:	75 f4                	jne    1022e8 <acpi_probe_rsdp+0x98>
            *(uint32_t *) (p + 4) == ACPI_RSDP_SIG2 &&
  1022f4:	84 c9                	test   %cl,%cl
  1022f6:	74 b8                	je     1022b0 <acpi_probe_rsdp+0x60>
    for (p = addr; p < e; p += 16) {
  1022f8:	83 c0 10             	add    $0x10,%eax
  1022fb:	3d 00 00 10 00       	cmp    $0x100000,%eax
  102300:	75 c8                	jne    1022ca <acpi_probe_rsdp+0x7a>
}
  102302:	5b                   	pop    %ebx
    return NULL;
  102303:	31 c0                	xor    %eax,%eax
}
  102305:	5e                   	pop    %esi
  102306:	5f                   	pop    %edi
  102307:	c3                   	ret    
  102308:	8d b4 26 00 00 00 00 	lea    0x0(%esi,%eiz,1),%esi
  10230f:	90                   	nop

00102310 <acpi_probe_rsdt>:

acpi_rsdt_t *acpi_probe_rsdt(acpi_rsdp_t *rsdp)
{
  102310:	56                   	push   %esi
  102311:	53                   	push   %ebx
  102312:	e8 72 e0 ff ff       	call   100389 <__x86.get_pc_thunk.bx>
  102317:	81 c3 e9 ec 00 00    	add    $0xece9,%ebx
  10231d:	83 ec 04             	sub    $0x4,%esp
  102320:	8b 74 24 10          	mov    0x10(%esp),%esi
    KERN_ASSERT(rsdp != NULL);
  102324:	85 f6                	test   %esi,%esi
  102326:	74 50                	je     102378 <acpi_probe_rsdt+0x68>

    acpi_rsdt_t *rsdt = (acpi_rsdt_t *) (rsdp->rsdt_addr);
  102328:	8b 5e 10             	mov    0x10(%esi),%ebx
  10232b:	89 d8                	mov    %ebx,%eax
    if (rsdt == NULL)
  10232d:	85 db                	test   %ebx,%ebx
  10232f:	74 2a                	je     10235b <acpi_probe_rsdt+0x4b>
        return NULL;
    if (rsdt->sig == ACPI_RSDT_SIG && sum((uint8_t *) rsdt, rsdt->length) == 0) {
  102331:	81 3b 52 53 44 54    	cmpl   $0x54445352,(%ebx)
  102337:	75 2f                	jne    102368 <acpi_probe_rsdt+0x58>
  102339:	8b 73 04             	mov    0x4(%ebx),%esi
    for (i = 0; i < len; i++) {
  10233c:	85 f6                	test   %esi,%esi
  10233e:	7e 1b                	jle    10235b <acpi_probe_rsdt+0x4b>
  102340:	01 de                	add    %ebx,%esi
    sum = 0;
  102342:	31 d2                	xor    %edx,%edx
  102344:	8d 74 26 00          	lea    0x0(%esi,%eiz,1),%esi
        sum += addr[i];
  102348:	0f b6 08             	movzbl (%eax),%ecx
    for (i = 0; i < len; i++) {
  10234b:	83 c0 01             	add    $0x1,%eax
        sum += addr[i];
  10234e:	01 ca                	add    %ecx,%edx
    for (i = 0; i < len; i++) {
  102350:	39 c6                	cmp    %eax,%esi
  102352:	75 f4                	jne    102348 <acpi_probe_rsdt+0x38>
        return NULL;
  102354:	31 c0                	xor    %eax,%eax
  102356:	84 d2                	test   %dl,%dl
  102358:	0f 45 d8             	cmovne %eax,%ebx
        return rsdt;
    }

    return NULL;
}
  10235b:	83 c4 04             	add    $0x4,%esp
  10235e:	89 d8                	mov    %ebx,%eax
  102360:	5b                   	pop    %ebx
  102361:	5e                   	pop    %esi
  102362:	c3                   	ret    
  102363:	8d 74 26 00          	lea    0x0(%esi,%eiz,1),%esi
  102367:	90                   	nop
        return NULL;
  102368:	31 db                	xor    %ebx,%ebx
}
  10236a:	83 c4 04             	add    $0x4,%esp
  10236d:	89 d8                	mov    %ebx,%eax
  10236f:	5b                   	pop    %ebx
  102370:	5e                   	pop    %esi
  102371:	c3                   	ret    
  102372:	8d b6 00 00 00 00    	lea    0x0(%esi),%esi
    KERN_ASSERT(rsdp != NULL);
  102378:	8d 83 2e 85 ff ff    	lea    -0x7ad2(%ebx),%eax
  10237e:	50                   	push   %eax
  10237f:	8d 83 bf 82 ff ff    	lea    -0x7d41(%ebx),%eax
  102385:	50                   	push   %eax
  102386:	8d 83 3b 85 ff ff    	lea    -0x7ac5(%ebx),%eax
  10238c:	6a 33                	push   $0x33
  10238e:	50                   	push   %eax
  10238f:	e8 9c 1c 00 00       	call   104030 <debug_panic>
  102394:	83 c4 10             	add    $0x10,%esp
  102397:	eb 8f                	jmp    102328 <acpi_probe_rsdt+0x18>
  102399:	8d b4 26 00 00 00 00 	lea    0x0(%esi,%eiz,1),%esi

001023a0 <acpi_probe_rsdt_ent>:

acpi_sdt_hdr_t *acpi_probe_rsdt_ent(acpi_rsdt_t *rsdt, const uint32_t sig)
{
  1023a0:	55                   	push   %ebp
  1023a1:	57                   	push   %edi
  1023a2:	56                   	push   %esi
  1023a3:	53                   	push   %ebx
  1023a4:	e8 e0 df ff ff       	call   100389 <__x86.get_pc_thunk.bx>
  1023a9:	81 c3 57 ec 00 00    	add    $0xec57,%ebx
  1023af:	83 ec 1c             	sub    $0x1c,%esp
  1023b2:	8b 74 24 30          	mov    0x30(%esp),%esi
    KERN_ASSERT(rsdt != NULL);
  1023b6:	85 f6                	test   %esi,%esi
  1023b8:	74 62                	je     10241c <acpi_probe_rsdt_ent+0x7c>

    uint8_t *p = (uint8_t *) &rsdt->ent[0];
    uint8_t *e = (uint8_t *) rsdt + rsdt->length;
  1023ba:	8b 7e 04             	mov    0x4(%esi),%edi
    uint8_t *p = (uint8_t *) &rsdt->ent[0];
  1023bd:	8d 56 24             	lea    0x24(%esi),%edx
    uint8_t *e = (uint8_t *) rsdt + rsdt->length;
  1023c0:	01 f7                	add    %esi,%edi

    int i;
    for (i = 0; p < e; i++) {
  1023c2:	39 d7                	cmp    %edx,%edi
  1023c4:	76 4a                	jbe    102410 <acpi_probe_rsdt_ent+0x70>
  1023c6:	89 7c 24 0c          	mov    %edi,0xc(%esp)
  1023ca:	8b 7c 24 34          	mov    0x34(%esp),%edi
  1023ce:	eb 09                	jmp    1023d9 <acpi_probe_rsdt_ent+0x39>
  1023d0:	83 c2 04             	add    $0x4,%edx
  1023d3:	39 54 24 0c          	cmp    %edx,0xc(%esp)
  1023d7:	76 37                	jbe    102410 <acpi_probe_rsdt_ent+0x70>
        acpi_sdt_hdr_t *hdr = (acpi_sdt_hdr_t *) (rsdt->ent[i]);
  1023d9:	8b 02                	mov    (%edx),%eax
  1023db:	89 c5                	mov    %eax,%ebp
        if (hdr->sig == sig && sum((uint8_t *) hdr, hdr->length) == 0) {
  1023dd:	39 38                	cmp    %edi,(%eax)
  1023df:	75 ef                	jne    1023d0 <acpi_probe_rsdt_ent+0x30>
  1023e1:	8b 70 04             	mov    0x4(%eax),%esi
    for (i = 0; i < len; i++) {
  1023e4:	85 f6                	test   %esi,%esi
  1023e6:	7e 18                	jle    102400 <acpi_probe_rsdt_ent+0x60>
  1023e8:	01 c6                	add    %eax,%esi
    sum = 0;
  1023ea:	31 c9                	xor    %ecx,%ecx
  1023ec:	8d 74 26 00          	lea    0x0(%esi,%eiz,1),%esi
        sum += addr[i];
  1023f0:	0f b6 18             	movzbl (%eax),%ebx
    for (i = 0; i < len; i++) {
  1023f3:	83 c0 01             	add    $0x1,%eax
        sum += addr[i];
  1023f6:	01 d9                	add    %ebx,%ecx
    for (i = 0; i < len; i++) {
  1023f8:	39 c6                	cmp    %eax,%esi
  1023fa:	75 f4                	jne    1023f0 <acpi_probe_rsdt_ent+0x50>
        if (hdr->sig == sig && sum((uint8_t *) hdr, hdr->length) == 0) {
  1023fc:	84 c9                	test   %cl,%cl
  1023fe:	75 d0                	jne    1023d0 <acpi_probe_rsdt_ent+0x30>
        }
        p = (uint8_t *) &rsdt->ent[i + 1];
    }

    return NULL;
}
  102400:	83 c4 1c             	add    $0x1c,%esp
  102403:	89 e8                	mov    %ebp,%eax
  102405:	5b                   	pop    %ebx
  102406:	5e                   	pop    %esi
  102407:	5f                   	pop    %edi
  102408:	5d                   	pop    %ebp
  102409:	c3                   	ret    
  10240a:	8d b6 00 00 00 00    	lea    0x0(%esi),%esi
  102410:	83 c4 1c             	add    $0x1c,%esp
    return NULL;
  102413:	31 ed                	xor    %ebp,%ebp
}
  102415:	5b                   	pop    %ebx
  102416:	89 e8                	mov    %ebp,%eax
  102418:	5e                   	pop    %esi
  102419:	5f                   	pop    %edi
  10241a:	5d                   	pop    %ebp
  10241b:	c3                   	ret    
    KERN_ASSERT(rsdt != NULL);
  10241c:	8d 83 4b 85 ff ff    	lea    -0x7ab5(%ebx),%eax
  102422:	50                   	push   %eax
  102423:	8d 83 bf 82 ff ff    	lea    -0x7d41(%ebx),%eax
  102429:	50                   	push   %eax
  10242a:	8d 83 3b 85 ff ff    	lea    -0x7ac5(%ebx),%eax
  102430:	6a 41                	push   $0x41
  102432:	50                   	push   %eax
  102433:	e8 f8 1b 00 00       	call   104030 <debug_panic>
  102438:	83 c4 10             	add    $0x10,%esp
  10243b:	e9 7a ff ff ff       	jmp    1023ba <acpi_probe_rsdt_ent+0x1a>

00102440 <acpi_probe_xsdt>:

acpi_xsdt_t *acpi_probe_xsdt(acpi_rsdp_t *rsdp)
{
  102440:	56                   	push   %esi
  102441:	53                   	push   %ebx
  102442:	e8 42 df ff ff       	call   100389 <__x86.get_pc_thunk.bx>
  102447:	81 c3 b9 eb 00 00    	add    $0xebb9,%ebx
  10244d:	83 ec 04             	sub    $0x4,%esp
  102450:	8b 74 24 10          	mov    0x10(%esp),%esi
    KERN_ASSERT(rsdp != NULL);
  102454:	85 f6                	test   %esi,%esi
  102456:	74 50                	je     1024a8 <acpi_probe_xsdt+0x68>

    acpi_xsdt_t *xsdt = (acpi_xsdt_t *) (uintptr_t) rsdp->xsdt_addr;
  102458:	8b 5e 18             	mov    0x18(%esi),%ebx
  10245b:	89 d8                	mov    %ebx,%eax
    if (xsdt == NULL)
  10245d:	85 db                	test   %ebx,%ebx
  10245f:	74 2a                	je     10248b <acpi_probe_xsdt+0x4b>
        return NULL;
    if (xsdt->sig == ACPI_XSDT_SIG && sum((uint8_t *) xsdt, xsdt->length) == 0) {
  102461:	81 3b 58 53 44 54    	cmpl   $0x54445358,(%ebx)
  102467:	75 2f                	jne    102498 <acpi_probe_xsdt+0x58>
  102469:	8b 73 04             	mov    0x4(%ebx),%esi
    for (i = 0; i < len; i++) {
  10246c:	85 f6                	test   %esi,%esi
  10246e:	7e 1b                	jle    10248b <acpi_probe_xsdt+0x4b>
  102470:	01 de                	add    %ebx,%esi
    sum = 0;
  102472:	31 d2                	xor    %edx,%edx
  102474:	8d 74 26 00          	lea    0x0(%esi,%eiz,1),%esi
        sum += addr[i];
  102478:	0f b6 08             	movzbl (%eax),%ecx
    for (i = 0; i < len; i++) {
  10247b:	83 c0 01             	add    $0x1,%eax
        sum += addr[i];
  10247e:	01 ca                	add    %ecx,%edx
    for (i = 0; i < len; i++) {
  102480:	39 c6                	cmp    %eax,%esi
  102482:	75 f4                	jne    102478 <acpi_probe_xsdt+0x38>
        return NULL;
  102484:	31 c0                	xor    %eax,%eax
  102486:	84 d2                	test   %dl,%dl
  102488:	0f 45 d8             	cmovne %eax,%ebx
        return xsdt;
    }

    return NULL;
}
  10248b:	83 c4 04             	add    $0x4,%esp
  10248e:	89 d8                	mov    %ebx,%eax
  102490:	5b                   	pop    %ebx
  102491:	5e                   	pop    %esi
  102492:	c3                   	ret    
  102493:	8d 74 26 00          	lea    0x0(%esi,%eiz,1),%esi
  102497:	90                   	nop
        return NULL;
  102498:	31 db                	xor    %ebx,%ebx
}
  10249a:	83 c4 04             	add    $0x4,%esp
  10249d:	89 d8                	mov    %ebx,%eax
  10249f:	5b                   	pop    %ebx
  1024a0:	5e                   	pop    %esi
  1024a1:	c3                   	ret    
  1024a2:	8d b6 00 00 00 00    	lea    0x0(%esi),%esi
    KERN_ASSERT(rsdp != NULL);
  1024a8:	8d 83 2e 85 ff ff    	lea    -0x7ad2(%ebx),%eax
  1024ae:	50                   	push   %eax
  1024af:	8d 83 bf 82 ff ff    	lea    -0x7d41(%ebx),%eax
  1024b5:	50                   	push   %eax
  1024b6:	8d 83 3b 85 ff ff    	lea    -0x7ac5(%ebx),%eax
  1024bc:	6a 54                	push   $0x54
  1024be:	50                   	push   %eax
  1024bf:	e8 6c 1b 00 00       	call   104030 <debug_panic>
  1024c4:	83 c4 10             	add    $0x10,%esp
  1024c7:	eb 8f                	jmp    102458 <acpi_probe_xsdt+0x18>
  1024c9:	8d b4 26 00 00 00 00 	lea    0x0(%esi,%eiz,1),%esi

001024d0 <acpi_probe_xsdt_ent>:

acpi_sdt_hdr_t *acpi_probe_xsdt_ent(acpi_xsdt_t *xsdt, const uint32_t sig)
{
  1024d0:	55                   	push   %ebp
  1024d1:	57                   	push   %edi
  1024d2:	56                   	push   %esi
  1024d3:	53                   	push   %ebx
  1024d4:	e8 b0 de ff ff       	call   100389 <__x86.get_pc_thunk.bx>
  1024d9:	81 c3 27 eb 00 00    	add    $0xeb27,%ebx
  1024df:	83 ec 1c             	sub    $0x1c,%esp
  1024e2:	8b 74 24 30          	mov    0x30(%esp),%esi
    KERN_ASSERT(xsdt != NULL);
  1024e6:	85 f6                	test   %esi,%esi
  1024e8:	74 62                	je     10254c <acpi_probe_xsdt_ent+0x7c>

    uint8_t *p = (uint8_t *) &xsdt->ent[0];
    uint8_t *e = (uint8_t *) xsdt + xsdt->length;
  1024ea:	8b 7e 04             	mov    0x4(%esi),%edi
    uint8_t *p = (uint8_t *) &xsdt->ent[0];
  1024ed:	8d 56 24             	lea    0x24(%esi),%edx
    uint8_t *e = (uint8_t *) xsdt + xsdt->length;
  1024f0:	01 f7                	add    %esi,%edi

    int i;
    for (i = 0; p < e; i++) {
  1024f2:	39 d7                	cmp    %edx,%edi
  1024f4:	76 4a                	jbe    102540 <acpi_probe_xsdt_ent+0x70>
  1024f6:	89 7c 24 0c          	mov    %edi,0xc(%esp)
  1024fa:	8b 7c 24 34          	mov    0x34(%esp),%edi
  1024fe:	eb 09                	jmp    102509 <acpi_probe_xsdt_ent+0x39>
  102500:	83 c2 08             	add    $0x8,%edx
  102503:	39 54 24 0c          	cmp    %edx,0xc(%esp)
  102507:	76 37                	jbe    102540 <acpi_probe_xsdt_ent+0x70>
        acpi_sdt_hdr_t *hdr = (acpi_sdt_hdr_t *) (uintptr_t) xsdt->ent[i];
  102509:	8b 02                	mov    (%edx),%eax
  10250b:	89 c5                	mov    %eax,%ebp
        if (hdr->sig == sig && sum((uint8_t *) hdr, hdr->length) == 0) {
  10250d:	39 38                	cmp    %edi,(%eax)
  10250f:	75 ef                	jne    102500 <acpi_probe_xsdt_ent+0x30>
  102511:	8b 70 04             	mov    0x4(%eax),%esi
    for (i = 0; i < len; i++) {
  102514:	85 f6                	test   %esi,%esi
  102516:	7e 18                	jle    102530 <acpi_probe_xsdt_ent+0x60>
  102518:	01 c6                	add    %eax,%esi
    sum = 0;
  10251a:	31 c9                	xor    %ecx,%ecx
  10251c:	8d 74 26 00          	lea    0x0(%esi,%eiz,1),%esi
        sum += addr[i];
  102520:	0f b6 18             	movzbl (%eax),%ebx
    for (i = 0; i < len; i++) {
  102523:	83 c0 01             	add    $0x1,%eax
        sum += addr[i];
  102526:	01 d9                	add    %ebx,%ecx
    for (i = 0; i < len; i++) {
  102528:	39 c6                	cmp    %eax,%esi
  10252a:	75 f4                	jne    102520 <acpi_probe_xsdt_ent+0x50>
        if (hdr->sig == sig && sum((uint8_t *) hdr, hdr->length) == 0) {
  10252c:	84 c9                	test   %cl,%cl
  10252e:	75 d0                	jne    102500 <acpi_probe_xsdt_ent+0x30>
        }
        p = (uint8_t *) &xsdt->ent[i + 1];
    }

    return NULL;
}
  102530:	83 c4 1c             	add    $0x1c,%esp
  102533:	89 e8                	mov    %ebp,%eax
  102535:	5b                   	pop    %ebx
  102536:	5e                   	pop    %esi
  102537:	5f                   	pop    %edi
  102538:	5d                   	pop    %ebp
  102539:	c3                   	ret    
  10253a:	8d b6 00 00 00 00    	lea    0x0(%esi),%esi
  102540:	83 c4 1c             	add    $0x1c,%esp
    return NULL;
  102543:	31 ed                	xor    %ebp,%ebp
}
  102545:	5b                   	pop    %ebx
  102546:	89 e8                	mov    %ebp,%eax
  102548:	5e                   	pop    %esi
  102549:	5f                   	pop    %edi
  10254a:	5d                   	pop    %ebp
  10254b:	c3                   	ret    
    KERN_ASSERT(xsdt != NULL);
  10254c:	8d 83 58 85 ff ff    	lea    -0x7aa8(%ebx),%eax
  102552:	50                   	push   %eax
  102553:	8d 83 bf 82 ff ff    	lea    -0x7d41(%ebx),%eax
  102559:	50                   	push   %eax
  10255a:	8d 83 3b 85 ff ff    	lea    -0x7ac5(%ebx),%eax
  102560:	6a 62                	push   $0x62
  102562:	50                   	push   %eax
  102563:	e8 c8 1a 00 00       	call   104030 <debug_panic>
  102568:	83 c4 10             	add    $0x10,%esp
  10256b:	e9 7a ff ff ff       	jmp    1024ea <acpi_probe_xsdt_ent+0x1a>

00102570 <lapic_register>:
{
}

void lapic_register(uintptr_t lapic_addr)
{
    lapic = (lapic_t *) lapic_addr;
  102570:	e8 0c de ff ff       	call   100381 <__x86.get_pc_thunk.ax>
  102575:	05 8b ea 00 00       	add    $0xea8b,%eax
  10257a:	8b 54 24 04          	mov    0x4(%esp),%edx
  10257e:	89 90 90 88 02 00    	mov    %edx,0x28890(%eax)
}
  102584:	c3                   	ret    
  102585:	8d b4 26 00 00 00 00 	lea    0x0(%esi,%eiz,1),%esi
  10258c:	8d 74 26 00          	lea    0x0(%esi,%eiz,1),%esi

00102590 <lapic_init>:

/*
 * Initialize local APIC.
 */
void lapic_init()
{
  102590:	55                   	push   %ebp
  102591:	57                   	push   %edi
  102592:	56                   	push   %esi
  102593:	53                   	push   %ebx
  102594:	e8 f0 dd ff ff       	call   100389 <__x86.get_pc_thunk.bx>
  102599:	81 c3 67 ea 00 00    	add    $0xea67,%ebx
  10259f:	83 ec 2c             	sub    $0x2c,%esp
    if (!lapic)
  1025a2:	8b 83 90 88 02 00    	mov    0x28890(%ebx),%eax
  1025a8:	8d 93 6e 85 ff ff    	lea    -0x7a92(%ebx),%edx
  1025ae:	89 54 24 10          	mov    %edx,0x10(%esp)
  1025b2:	85 c0                	test   %eax,%eax
  1025b4:	0f 84 9b 02 00 00    	je     102855 <lapic_init+0x2c5>
    lapic[index] = value;
  1025ba:	c7 80 f0 00 00 00 27 	movl   $0x127,0xf0(%eax)
  1025c1:	01 00 00 
    lapic[LAPIC_ID];
  1025c4:	8b 50 20             	mov    0x20(%eax),%edx
    lapic[index] = value;
  1025c7:	c7 80 e0 03 00 00 0b 	movl   $0xb,0x3e0(%eax)
  1025ce:	00 00 00 
    lapic[LAPIC_ID];
  1025d1:	8b 50 20             	mov    0x20(%eax),%edx
    lapic[index] = value;
  1025d4:	c7 80 20 03 00 00 20 	movl   $0x20020,0x320(%eax)
  1025db:	00 02 00 
    lapic[LAPIC_ID];
  1025de:	8b 50 20             	mov    0x20(%eax),%edx
    int i;
    for (i = 0; i < 5; i++) {
        lapic_ticks_per_ms = lapic_calibrate_timer(CAL_LATCH, CAL_MS, CAL_PIT_LOOPS);
        if (lapic_ticks_per_ms != ~(uint32_t) 0x0)
            break;
        KERN_DEBUG("[%d] Retry to calibrate internal timer of LAPIC.\n", i);
  1025e1:	8d 93 c4 85 ff ff    	lea    -0x7a3c(%ebx),%edx
    for (i = 0; i < 5; i++) {
  1025e7:	c7 44 24 14 00 00 00 	movl   $0x0,0x14(%esp)
  1025ee:	00 
        KERN_DEBUG("[%d] Retry to calibrate internal timer of LAPIC.\n", i);
  1025ef:	89 54 24 1c          	mov    %edx,0x1c(%esp)
    lapic[index] = value;
  1025f3:	c7 80 80 03 00 00 ff 	movl   $0xffffffff,0x380(%eax)
  1025fa:	ff ff ff 
    outb(0x61, (inb(0x61) & ~0x02) | 0x01);
  1025fd:	83 ec 0c             	sub    $0xc,%esp
    lapic[LAPIC_ID];
  102600:	8b 40 20             	mov    0x20(%eax),%eax
    outb(0x61, (inb(0x61) & ~0x02) | 0x01);
  102603:	6a 61                	push   $0x61
  102605:	e8 46 28 00 00       	call   104e50 <inb>
  10260a:	5a                   	pop    %edx
  10260b:	59                   	pop    %ecx
  10260c:	25 fc 00 00 00       	and    $0xfc,%eax
  102611:	83 c8 01             	or     $0x1,%eax
  102614:	50                   	push   %eax
  102615:	6a 61                	push   $0x61
  102617:	e8 64 28 00 00       	call   104e80 <outb>
    outb(0x43, 0xb0);
  10261c:	5e                   	pop    %esi
  10261d:	5f                   	pop    %edi
  10261e:	68 b0 00 00 00       	push   $0xb0
  102623:	6a 43                	push   $0x43
    timermin = ~(uint32_t) 0x0;
  102625:	bf ff ff ff ff       	mov    $0xffffffff,%edi
    outb(0x43, 0xb0);
  10262a:	e8 51 28 00 00       	call   104e80 <outb>
    outb(0x42, latch & 0xff);
  10262f:	5d                   	pop    %ebp
  102630:	58                   	pop    %eax
  102631:	68 9b 00 00 00       	push   $0x9b
  102636:	6a 42                	push   $0x42
    timermax = 0;
  102638:	31 ed                	xor    %ebp,%ebp
    outb(0x42, latch & 0xff);
  10263a:	e8 41 28 00 00       	call   104e80 <outb>
    outb(0x42, latch >> 8);
  10263f:	58                   	pop    %eax
  102640:	5a                   	pop    %edx
  102641:	6a 2e                	push   $0x2e
  102643:	6a 42                	push   $0x42
  102645:	e8 36 28 00 00       	call   104e80 <outb>
    return lapic[index];
  10264a:	8b 83 90 88 02 00    	mov    0x28890(%ebx),%eax
  102650:	8b 80 90 03 00 00    	mov    0x390(%eax),%eax
  102656:	89 44 24 28          	mov    %eax,0x28(%esp)
  10265a:	89 c6                	mov    %eax,%esi
  10265c:	89 e8                	mov    %ebp,%eax
    while ((inb(0x61) & 0x20) == 0) {
  10265e:	83 c4 10             	add    $0x10,%esp
  102661:	89 fd                	mov    %edi,%ebp
  102663:	89 c7                	mov    %eax,%edi
    pitcnt = 0;
  102665:	c7 44 24 0c 00 00 00 	movl   $0x0,0xc(%esp)
  10266c:	00 
    while ((inb(0x61) & 0x20) == 0) {
  10266d:	eb 20                	jmp    10268f <lapic_init+0xff>
  10266f:	90                   	nop
    return lapic[index];
  102670:	8b 83 90 88 02 00    	mov    0x28890(%ebx),%eax
  102676:	8b 80 90 03 00 00    	mov    0x390(%eax),%eax
        delta = timer - timer2;
  10267c:	29 c6                	sub    %eax,%esi
        if (delta < timermin)
  10267e:	39 f5                	cmp    %esi,%ebp
  102680:	0f 47 ee             	cmova  %esi,%ebp
        if (delta > timermax)
  102683:	39 f7                	cmp    %esi,%edi
  102685:	0f 42 fe             	cmovb  %esi,%edi
        pitcnt++;
  102688:	83 44 24 0c 01       	addl   $0x1,0xc(%esp)
        timer = timer2;
  10268d:	89 c6                	mov    %eax,%esi
    while ((inb(0x61) & 0x20) == 0) {
  10268f:	83 ec 0c             	sub    $0xc,%esp
  102692:	6a 61                	push   $0x61
  102694:	e8 b7 27 00 00       	call   104e50 <inb>
  102699:	83 c4 10             	add    $0x10,%esp
  10269c:	a8 20                	test   $0x20,%al
  10269e:	74 d0                	je     102670 <lapic_init+0xe0>
    if (pitcnt < loopmin || timermax > 10 * timermin)
  1026a0:	89 f8                	mov    %edi,%eax
  1026a2:	81 7c 24 0c e7 03 00 	cmpl   $0x3e7,0xc(%esp)
  1026a9:	00 
  1026aa:	89 ef                	mov    %ebp,%edi
  1026ac:	89 c5                	mov    %eax,%ebp
  1026ae:	0f 8e 3c 01 00 00    	jle    1027f0 <lapic_init+0x260>
  1026b4:	8d 04 bf             	lea    (%edi,%edi,4),%eax
  1026b7:	01 c0                	add    %eax,%eax
  1026b9:	39 c5                	cmp    %eax,%ebp
  1026bb:	0f 87 2f 01 00 00    	ja     1027f0 <lapic_init+0x260>
    delta = timer1 - timer2;
  1026c1:	8b 54 24 18          	mov    0x18(%esp),%edx
    return delta / ms;
  1026c5:	b9 cd cc cc cc       	mov    $0xcccccccd,%ecx
    if (lapic_ticks_per_ms == ~(uint32_t) 0x0) {
        KERN_WARN("Failed to calibrate internal timer of LAPIC.\n");
        KERN_DEBUG("Assume LAPIC timer freq = 0.5 GHz.\n");
        lapic_ticks_per_ms = 500000;
    } else
        KERN_DEBUG("LAPIC timer freq = %llu Hz.\n",
  1026ca:	83 ec 0c             	sub    $0xc,%esp
    delta = timer1 - timer2;
  1026cd:	29 f2                	sub    %esi,%edx
    return delta / ms;
  1026cf:	89 d0                	mov    %edx,%eax
  1026d1:	f7 e1                	mul    %ecx
        KERN_DEBUG("LAPIC timer freq = %llu Hz.\n",
  1026d3:	b8 e8 03 00 00       	mov    $0x3e8,%eax
    return delta / ms;
  1026d8:	c1 ea 03             	shr    $0x3,%edx
  1026db:	89 d6                	mov    %edx,%esi
        KERN_DEBUG("LAPIC timer freq = %llu Hz.\n",
  1026dd:	f7 e2                	mul    %edx
  1026df:	52                   	push   %edx
  1026e0:	50                   	push   %eax
  1026e1:	8d 83 7f 85 ff ff    	lea    -0x7a81(%ebx),%eax
  1026e7:	50                   	push   %eax
  1026e8:	6a 7d                	push   $0x7d
  1026ea:	ff 74 24 2c          	push   0x2c(%esp)
  1026ee:	e8 fd 18 00 00       	call   103ff0 <debug_normal>
                   (uint64_t) lapic_ticks_per_ms * 1000);

    uint32_t ticr = lapic_ticks_per_ms * 1000 / LAPIC_TIMER_INTR_FREQ;
  1026f3:	69 d6 e8 03 00 00    	imul   $0x3e8,%esi,%edx
  1026f9:	b9 d3 4d 62 10       	mov    $0x10624dd3,%ecx
  1026fe:	83 c4 20             	add    $0x20,%esp
  102701:	89 d0                	mov    %edx,%eax
  102703:	f7 e1                	mul    %ecx
  102705:	c1 ea 06             	shr    $0x6,%edx
  102708:	89 d6                	mov    %edx,%esi
    KERN_DEBUG("Set LAPIC TICR = %x.\n", ticr);
  10270a:	8d 83 9c 85 ff ff    	lea    -0x7a64(%ebx),%eax
  102710:	56                   	push   %esi
  102711:	50                   	push   %eax
  102712:	68 81 00 00 00       	push   $0x81
  102717:	ff 74 24 1c          	push   0x1c(%esp)
  10271b:	e8 d0 18 00 00       	call   103ff0 <debug_normal>
    lapic[index] = value;
  102720:	8b 83 90 88 02 00    	mov    0x28890(%ebx),%eax
    lapic_write(LAPIC_LINT0, LAPIC_LINT_MASKED);
    lapic_write(LAPIC_LINT1, LAPIC_LINT_MASKED);

    // Disable performance counter overflow interrupts
    // on machines that provide that interrupt entry.
    if (((lapic_read(LAPIC_VER) >> 16) & 0xFF) >= 4)
  102726:	83 c4 10             	add    $0x10,%esp
    lapic[index] = value;
  102729:	89 b0 80 03 00 00    	mov    %esi,0x380(%eax)
    lapic[LAPIC_ID];
  10272f:	8b 50 20             	mov    0x20(%eax),%edx
    lapic[index] = value;
  102732:	c7 80 50 03 00 00 00 	movl   $0x10000,0x350(%eax)
  102739:	00 01 00 
    lapic[LAPIC_ID];
  10273c:	8b 50 20             	mov    0x20(%eax),%edx
    lapic[index] = value;
  10273f:	c7 80 60 03 00 00 00 	movl   $0x10000,0x360(%eax)
  102746:	00 01 00 
    lapic[LAPIC_ID];
  102749:	8b 50 20             	mov    0x20(%eax),%edx
    return lapic[index];
  10274c:	8b 50 30             	mov    0x30(%eax),%edx
    if (((lapic_read(LAPIC_VER) >> 16) & 0xFF) >= 4)
  10274f:	c1 ea 10             	shr    $0x10,%edx
  102752:	81 e2 fc 00 00 00    	and    $0xfc,%edx
  102758:	74 0d                	je     102767 <lapic_init+0x1d7>
    lapic[index] = value;
  10275a:	c7 80 40 03 00 00 00 	movl   $0x10000,0x340(%eax)
  102761:	00 01 00 
    lapic[LAPIC_ID];
  102764:	8b 50 20             	mov    0x20(%eax),%edx
    lapic[index] = value;
  102767:	c7 80 e0 00 00 00 00 	movl   $0xf0000000,0xe0(%eax)
  10276e:	00 00 f0 
    lapic[LAPIC_ID];
  102771:	8b 50 20             	mov    0x20(%eax),%edx
    lapic[index] = value;
  102774:	c7 80 d0 00 00 00 00 	movl   $0x0,0xd0(%eax)
  10277b:	00 00 00 
    lapic[LAPIC_ID];
  10277e:	8b 50 20             	mov    0x20(%eax),%edx
    lapic[index] = value;
  102781:	c7 80 70 03 00 00 32 	movl   $0x32,0x370(%eax)
  102788:	00 00 00 
    lapic[LAPIC_ID];
  10278b:	8b 50 20             	mov    0x20(%eax),%edx
    lapic[index] = value;
  10278e:	c7 80 80 02 00 00 00 	movl   $0x0,0x280(%eax)
  102795:	00 00 00 
    lapic[LAPIC_ID];
  102798:	8b 50 20             	mov    0x20(%eax),%edx
    lapic[index] = value;
  10279b:	c7 80 80 02 00 00 00 	movl   $0x0,0x280(%eax)
  1027a2:	00 00 00 
    lapic[LAPIC_ID];
  1027a5:	8b 50 20             	mov    0x20(%eax),%edx
    lapic[index] = value;
  1027a8:	c7 80 b0 00 00 00 00 	movl   $0x0,0xb0(%eax)
  1027af:	00 00 00 
    lapic[LAPIC_ID];
  1027b2:	8b 50 20             	mov    0x20(%eax),%edx
    lapic[index] = value;
  1027b5:	c7 80 10 03 00 00 00 	movl   $0x0,0x310(%eax)
  1027bc:	00 00 00 
    lapic[LAPIC_ID];
  1027bf:	8b 50 20             	mov    0x20(%eax),%edx
    lapic[index] = value;
  1027c2:	c7 80 00 03 00 00 00 	movl   $0x88500,0x300(%eax)
  1027c9:	85 08 00 
    lapic[LAPIC_ID];
  1027cc:	8b 50 20             	mov    0x20(%eax),%edx
  1027cf:	90                   	nop
    return lapic[index];
  1027d0:	8b 90 00 03 00 00    	mov    0x300(%eax),%edx

    // Send an Init Level De-Assert to synchronise arbitration ID's.
    lapic_write(LAPIC_ICRHI, 0);
    lapic_write(LAPIC_ICRLO,
                LAPIC_ICRLO_BCAST | LAPIC_ICRLO_INIT | LAPIC_ICRLO_LEVEL);
    while (lapic_read(LAPIC_ICRLO) & LAPIC_ICRLO_DELIVS);
  1027d6:	80 e6 10             	and    $0x10,%dh
  1027d9:	75 f5                	jne    1027d0 <lapic_init+0x240>
    lapic[index] = value;
  1027db:	c7 80 80 00 00 00 00 	movl   $0x0,0x80(%eax)
  1027e2:	00 00 00 
    lapic[LAPIC_ID];
  1027e5:	8b 40 20             	mov    0x20(%eax),%eax

    // Enable interrupts on the APIC (but not on the processor).
    lapic_write(LAPIC_TPR, 0);
}
  1027e8:	83 c4 2c             	add    $0x2c,%esp
  1027eb:	5b                   	pop    %ebx
  1027ec:	5e                   	pop    %esi
  1027ed:	5f                   	pop    %edi
  1027ee:	5d                   	pop    %ebp
  1027ef:	c3                   	ret    
        KERN_DEBUG("[%d] Retry to calibrate internal timer of LAPIC.\n", i);
  1027f0:	8b 7c 24 14          	mov    0x14(%esp),%edi
  1027f4:	57                   	push   %edi
  1027f5:	ff 74 24 20          	push   0x20(%esp)
  1027f9:	6a 75                	push   $0x75
  1027fb:	ff 74 24 1c          	push   0x1c(%esp)
  1027ff:	e8 ec 17 00 00       	call   103ff0 <debug_normal>
    for (i = 0; i < 5; i++) {
  102804:	89 f8                	mov    %edi,%eax
  102806:	83 c0 01             	add    $0x1,%eax
  102809:	89 44 24 24          	mov    %eax,0x24(%esp)
  10280d:	83 c4 10             	add    $0x10,%esp
  102810:	83 f8 05             	cmp    $0x5,%eax
  102813:	74 0b                	je     102820 <lapic_init+0x290>
    lapic[index] = value;
  102815:	8b 83 90 88 02 00    	mov    0x28890(%ebx),%eax
  10281b:	e9 d3 fd ff ff       	jmp    1025f3 <lapic_init+0x63>
        KERN_WARN("Failed to calibrate internal timer of LAPIC.\n");
  102820:	83 ec 04             	sub    $0x4,%esp
  102823:	8d 83 f8 85 ff ff    	lea    -0x7a08(%ebx),%eax
  102829:	be 20 a1 07 00       	mov    $0x7a120,%esi
  10282e:	50                   	push   %eax
  10282f:	6a 79                	push   $0x79
  102831:	8b 7c 24 1c          	mov    0x1c(%esp),%edi
  102835:	57                   	push   %edi
  102836:	e8 c5 18 00 00       	call   104100 <debug_warn>
        KERN_DEBUG("Assume LAPIC timer freq = 0.5 GHz.\n");
  10283b:	83 c4 0c             	add    $0xc,%esp
  10283e:	8d 83 28 86 ff ff    	lea    -0x79d8(%ebx),%eax
  102844:	50                   	push   %eax
  102845:	6a 7a                	push   $0x7a
  102847:	57                   	push   %edi
  102848:	e8 a3 17 00 00       	call   103ff0 <debug_normal>
        lapic_ticks_per_ms = 500000;
  10284d:	83 c4 10             	add    $0x10,%esp
  102850:	e9 b5 fe ff ff       	jmp    10270a <lapic_init+0x17a>
        KERN_PANIC("NO LAPIC");
  102855:	83 ec 04             	sub    $0x4,%esp
  102858:	8d 83 65 85 ff ff    	lea    -0x7a9b(%ebx),%eax
  10285e:	50                   	push   %eax
  10285f:	6a 62                	push   $0x62
  102861:	ff 74 24 1c          	push   0x1c(%esp)
  102865:	e8 c6 17 00 00       	call   104030 <debug_panic>
    lapic[index] = value;
  10286a:	8b 83 90 88 02 00    	mov    0x28890(%ebx),%eax
  102870:	83 c4 10             	add    $0x10,%esp
  102873:	e9 42 fd ff ff       	jmp    1025ba <lapic_init+0x2a>
  102878:	8d b4 26 00 00 00 00 	lea    0x0(%esi,%eiz,1),%esi
  10287f:	90                   	nop

00102880 <lapic_eoi>:
/*
 * Acknowledge the end of interrupts.
 */
void lapic_eoi(void)
{
    if (lapic)
  102880:	e8 fc da ff ff       	call   100381 <__x86.get_pc_thunk.ax>
  102885:	05 7b e7 00 00       	add    $0xe77b,%eax
  10288a:	8b 80 90 88 02 00    	mov    0x28890(%eax),%eax
  102890:	85 c0                	test   %eax,%eax
  102892:	74 0d                	je     1028a1 <lapic_eoi+0x21>
    lapic[index] = value;
  102894:	c7 80 b0 00 00 00 00 	movl   $0x0,0xb0(%eax)
  10289b:	00 00 00 
    lapic[LAPIC_ID];
  10289e:	8b 40 20             	mov    0x20(%eax),%eax
        lapic_write(LAPIC_EOI, 0);
}
  1028a1:	c3                   	ret    
  1028a2:	8d b4 26 00 00 00 00 	lea    0x0(%esi,%eiz,1),%esi
  1028a9:	8d b4 26 00 00 00 00 	lea    0x0(%esi,%eiz,1),%esi

001028b0 <lapic_startcpu>:
/*
 * Start additional processor running bootstrap code at addr.
 * See Appendix B of MultiProcessor Specification.
 */
void lapic_startcpu(lapicid_t apicid, uintptr_t addr)
{
  1028b0:	57                   	push   %edi
  1028b1:	56                   	push   %esi
  1028b2:	53                   	push   %ebx
  1028b3:	8b 74 24 14          	mov    0x14(%esp),%esi
  1028b7:	e8 cd da ff ff       	call   100389 <__x86.get_pc_thunk.bx>
  1028bc:	81 c3 44 e7 00 00    	add    $0xe744,%ebx
  1028c2:	8b 7c 24 10          	mov    0x10(%esp),%edi
    uint16_t *wrv;

    // "The BSP must initialize CMOS shutdown code to 0AH
    // and the warm reset vector (DWORD based at 40:67) to point at
    // the AP startup code prior to the [universal startup algorithm]."
    outb(IO_RTC, 0xF);                      // offset 0xF is shutdown code
  1028c6:	83 ec 08             	sub    $0x8,%esp
    wrv[0] = 0;
    wrv[1] = addr >> 4;

    // "Universal startup algorithm."
    // Send INIT (level-triggered) interrupt to reset other CPU.
    lapic_write(LAPIC_ICRHI, apicid << 24);
  1028c9:	c1 e7 18             	shl    $0x18,%edi
    outb(IO_RTC, 0xF);                      // offset 0xF is shutdown code
  1028cc:	6a 0f                	push   $0xf
  1028ce:	6a 70                	push   $0x70
  1028d0:	e8 ab 25 00 00       	call   104e80 <outb>
    outb(IO_RTC + 1, 0x0A);
  1028d5:	58                   	pop    %eax
  1028d6:	5a                   	pop    %edx
  1028d7:	6a 0a                	push   $0xa
  1028d9:	6a 71                	push   $0x71
  1028db:	e8 a0 25 00 00       	call   104e80 <outb>
    wrv[1] = addr >> 4;
  1028e0:	89 f0                	mov    %esi,%eax
    // when it is in the halted state due to an INIT. So the second
    // should be ignored, but it is part of the official Intel algorithm.
    // Bochs complains about the second one. Too bad for Bochs.
    for (i = 0; i < 2; i++) {
        lapic_write(LAPIC_ICRHI, apicid << 24);
        lapic_write(LAPIC_ICRLO, LAPIC_ICRLO_STARTUP | (addr >> 12));
  1028e2:	c1 ee 0c             	shr    $0xc,%esi
        microdelay(200);
    }
}
  1028e5:	83 c4 10             	add    $0x10,%esp
    wrv[1] = addr >> 4;
  1028e8:	c1 e8 04             	shr    $0x4,%eax
        lapic_write(LAPIC_ICRLO, LAPIC_ICRLO_STARTUP | (addr >> 12));
  1028eb:	81 ce 00 06 00 00    	or     $0x600,%esi
    wrv[0] = 0;
  1028f1:	31 c9                	xor    %ecx,%ecx
    wrv[1] = addr >> 4;
  1028f3:	66 a3 69 04 00 00    	mov    %ax,0x469
    lapic[index] = value;
  1028f9:	8b 83 90 88 02 00    	mov    0x28890(%ebx),%eax
    wrv[0] = 0;
  1028ff:	66 89 0d 67 04 00 00 	mov    %cx,0x467
    lapic[index] = value;
  102906:	89 b8 10 03 00 00    	mov    %edi,0x310(%eax)
    lapic[LAPIC_ID];
  10290c:	8b 48 20             	mov    0x20(%eax),%ecx
    lapic[index] = value;
  10290f:	c7 80 00 03 00 00 00 	movl   $0xc500,0x300(%eax)
  102916:	c5 00 00 
    lapic[LAPIC_ID];
  102919:	8b 48 20             	mov    0x20(%eax),%ecx
    lapic[index] = value;
  10291c:	c7 80 00 03 00 00 00 	movl   $0x8500,0x300(%eax)
  102923:	85 00 00 
    lapic[LAPIC_ID];
  102926:	8b 48 20             	mov    0x20(%eax),%ecx
    lapic[index] = value;
  102929:	89 b8 10 03 00 00    	mov    %edi,0x310(%eax)
    lapic[LAPIC_ID];
  10292f:	8b 48 20             	mov    0x20(%eax),%ecx
    lapic[index] = value;
  102932:	89 b0 00 03 00 00    	mov    %esi,0x300(%eax)
    lapic[LAPIC_ID];
  102938:	8b 48 20             	mov    0x20(%eax),%ecx
    lapic[index] = value;
  10293b:	89 b8 10 03 00 00    	mov    %edi,0x310(%eax)
    lapic[LAPIC_ID];
  102941:	8b 50 20             	mov    0x20(%eax),%edx
    lapic[index] = value;
  102944:	89 b0 00 03 00 00    	mov    %esi,0x300(%eax)
}
  10294a:	5b                   	pop    %ebx
    lapic[LAPIC_ID];
  10294b:	8b 40 20             	mov    0x20(%eax),%eax
}
  10294e:	5e                   	pop    %esi
  10294f:	5f                   	pop    %edi
  102950:	c3                   	ret    
  102951:	8d b4 26 00 00 00 00 	lea    0x0(%esi,%eiz,1),%esi
  102958:	8d b4 26 00 00 00 00 	lea    0x0(%esi,%eiz,1),%esi
  10295f:	90                   	nop

00102960 <lapic_read_debug>:
    return lapic[index];
  102960:	e8 1c da ff ff       	call   100381 <__x86.get_pc_thunk.ax>
  102965:	05 9b e6 00 00       	add    $0xe69b,%eax
  10296a:	8b 54 24 04          	mov    0x4(%esp),%edx
  10296e:	8b 80 90 88 02 00    	mov    0x28890(%eax),%eax
  102974:	8d 04 90             	lea    (%eax,%edx,4),%eax
  102977:	8b 00                	mov    (%eax),%eax

uint32_t lapic_read_debug(int index)
{
    return lapic_read(index);
}
  102979:	c3                   	ret    
  10297a:	8d b6 00 00 00 00    	lea    0x0(%esi),%esi

00102980 <lapic_send_ipi>:
/*
 * Send an IPI.
 */
void lapic_send_ipi(lapicid_t apicid, uint8_t vector,
                    uint32_t deliver_mode, uint32_t shorthand_mode)
{
  102980:	55                   	push   %ebp
  102981:	57                   	push   %edi
  102982:	56                   	push   %esi
  102983:	53                   	push   %ebx
  102984:	e8 00 da ff ff       	call   100389 <__x86.get_pc_thunk.bx>
  102989:	81 c3 77 e6 00 00    	add    $0xe677,%ebx
  10298f:	83 ec 0c             	sub    $0xc,%esp
    KERN_ASSERT(deliver_mode != LAPIC_ICRLO_INIT &&
  102992:	8b 44 24 28          	mov    0x28(%esp),%eax
{
  102996:	8b 6c 24 20          	mov    0x20(%esp),%ebp
  10299a:	8b 74 24 24          	mov    0x24(%esp),%esi
  10299e:	8b 7c 24 2c          	mov    0x2c(%esp),%edi
    KERN_ASSERT(deliver_mode != LAPIC_ICRLO_INIT &&
  1029a2:	2d 00 05 00 00       	sub    $0x500,%eax
  1029a7:	a9 ff fe ff ff       	test   $0xfffffeff,%eax
  1029ac:	74 5a                	je     102a08 <lapic_send_ipi+0x88>
                deliver_mode != LAPIC_ICRLO_STARTUP);
    KERN_ASSERT(vector >= T_IPI0);
  1029ae:	89 f0                	mov    %esi,%eax
  1029b0:	3c 3e                	cmp    $0x3e,%al
  1029b2:	77 11                	ja     1029c5 <lapic_send_ipi+0x45>
  1029b4:	eb 7a                	jmp    102a30 <lapic_send_ipi+0xb0>
  1029b6:	8d b4 26 00 00 00 00 	lea    0x0(%esi,%eiz,1),%esi
  1029bd:	8d 76 00             	lea    0x0(%esi),%esi

    while (lapic_read(LAPIC_ICRLO) & LAPIC_ICRLO_DELIVS)
        pause();
  1029c0:	e8 eb 22 00 00       	call   104cb0 <pause>
    return lapic[index];
  1029c5:	8b 83 90 88 02 00    	mov    0x28890(%ebx),%eax
  1029cb:	8b 90 00 03 00 00    	mov    0x300(%eax),%edx
    while (lapic_read(LAPIC_ICRLO) & LAPIC_ICRLO_DELIVS)
  1029d1:	80 e6 10             	and    $0x10,%dh
  1029d4:	75 ea                	jne    1029c0 <lapic_send_ipi+0x40>

    if (shorthand_mode == LAPIC_ICRLO_NOBCAST)
  1029d6:	85 ff                	test   %edi,%edi
  1029d8:	75 0c                	jne    1029e6 <lapic_send_ipi+0x66>
        lapic_write(LAPIC_ICRHI,
  1029da:	c1 e5 18             	shl    $0x18,%ebp
    lapic[index] = value;
  1029dd:	89 a8 10 03 00 00    	mov    %ebp,0x310(%eax)
    lapic[LAPIC_ID];
  1029e3:	8b 50 20             	mov    0x20(%eax),%edx
                    (apicid << LAPIC_ICRHI_DEST_SHIFT) & LAPIC_ICRHI_DEST_MASK);

    lapic_write(LAPIC_ICRLO,
                shorthand_mode |  /* LAPIC_ICRLO_LEVEL | */
                deliver_mode | (vector & LAPIC_ICRLO_VECTOR));
  1029e6:	89 f1                	mov    %esi,%ecx
  1029e8:	0f b6 f1             	movzbl %cl,%esi
  1029eb:	09 fe                	or     %edi,%esi
  1029ed:	0b 74 24 28          	or     0x28(%esp),%esi
    lapic[index] = value;
  1029f1:	89 b0 00 03 00 00    	mov    %esi,0x300(%eax)
    lapic[LAPIC_ID];
  1029f7:	8b 40 20             	mov    0x20(%eax),%eax
}
  1029fa:	83 c4 0c             	add    $0xc,%esp
  1029fd:	5b                   	pop    %ebx
  1029fe:	5e                   	pop    %esi
  1029ff:	5f                   	pop    %edi
  102a00:	5d                   	pop    %ebp
  102a01:	c3                   	ret    
  102a02:	8d b6 00 00 00 00    	lea    0x0(%esi),%esi
    KERN_ASSERT(deliver_mode != LAPIC_ICRLO_INIT &&
  102a08:	8d 83 4c 86 ff ff    	lea    -0x79b4(%ebx),%eax
  102a0e:	50                   	push   %eax
  102a0f:	8d 83 bf 82 ff ff    	lea    -0x7d41(%ebx),%eax
  102a15:	50                   	push   %eax
  102a16:	8d 83 6e 85 ff ff    	lea    -0x7a92(%ebx),%eax
  102a1c:	68 e4 00 00 00       	push   $0xe4
  102a21:	50                   	push   %eax
  102a22:	e8 09 16 00 00       	call   104030 <debug_panic>
    KERN_ASSERT(vector >= T_IPI0);
  102a27:	89 f0                	mov    %esi,%eax
    KERN_ASSERT(deliver_mode != LAPIC_ICRLO_INIT &&
  102a29:	83 c4 10             	add    $0x10,%esp
    KERN_ASSERT(vector >= T_IPI0);
  102a2c:	3c 3e                	cmp    $0x3e,%al
  102a2e:	77 95                	ja     1029c5 <lapic_send_ipi+0x45>
  102a30:	8d 83 b2 85 ff ff    	lea    -0x7a4e(%ebx),%eax
  102a36:	50                   	push   %eax
  102a37:	8d 83 bf 82 ff ff    	lea    -0x7d41(%ebx),%eax
  102a3d:	50                   	push   %eax
  102a3e:	8d 83 6e 85 ff ff    	lea    -0x7a92(%ebx),%eax
  102a44:	68 e6 00 00 00       	push   $0xe6
  102a49:	50                   	push   %eax
  102a4a:	e8 e1 15 00 00       	call   104030 <debug_panic>
  102a4f:	83 c4 10             	add    $0x10,%esp
    return lapic[index];
  102a52:	e9 6e ff ff ff       	jmp    1029c5 <lapic_send_ipi+0x45>
  102a57:	66 90                	xchg   %ax,%ax
  102a59:	66 90                	xchg   %ax,%ax
  102a5b:	66 90                	xchg   %ax,%ax
  102a5d:	66 90                	xchg   %ax,%ax
  102a5f:	90                   	nop

00102a60 <ioapic_register>:
    base->reg = reg;
    base->data = data;
}

void ioapic_register(uintptr_t addr, lapicid_t id, int g)
{
  102a60:	53                   	push   %ebx
  102a61:	e8 23 d9 ff ff       	call   100389 <__x86.get_pc_thunk.bx>
  102a66:	81 c3 9a e5 00 00    	add    $0xe59a,%ebx
  102a6c:	83 ec 08             	sub    $0x8,%esp
  102a6f:	8b 54 24 14          	mov    0x14(%esp),%edx
    if (ioapic_num >= MAX_IOAPIC) {
  102a73:	8b 83 a0 88 02 00    	mov    0x288a0(%ebx),%eax
  102a79:	83 f8 0f             	cmp    $0xf,%eax
  102a7c:	7f 4a                	jg     102ac8 <ioapic_register+0x68>
        KERN_WARN("CertiKOS cannot manipulate more than %d IOAPICs.\n", MAX_IOAPIC);
        return;
    }

    ioapics[ioapic_num] = (ioapic_t *) addr;
  102a7e:	8b 83 a0 88 02 00    	mov    0x288a0(%ebx),%eax
  102a84:	8b 4c 24 10          	mov    0x10(%esp),%ecx
  102a88:	89 8c 83 20 89 02 00 	mov    %ecx,0x28920(%ebx,%eax,4)
    ioapicid[ioapic_num] = id;
  102a8f:	8b 83 a0 88 02 00    	mov    0x288a0(%ebx),%eax
    gsi[ioapic_num] = g;
  102a95:	8b 4c 24 18          	mov    0x18(%esp),%ecx
    ioapicid[ioapic_num] = id;
  102a99:	88 94 03 00 89 02 00 	mov    %dl,0x28900(%ebx,%eax,1)
    gsi[ioapic_num] = g;
  102aa0:	8b 93 a0 88 02 00    	mov    0x288a0(%ebx),%edx
  102aa6:	8d 83 c0 88 02 00    	lea    0x288c0(%ebx),%eax
  102aac:	89 0c 90             	mov    %ecx,(%eax,%edx,4)

    ioapic_num++;
  102aaf:	8b 83 a0 88 02 00    	mov    0x288a0(%ebx),%eax
  102ab5:	83 c0 01             	add    $0x1,%eax
  102ab8:	89 83 a0 88 02 00    	mov    %eax,0x288a0(%ebx)
}
  102abe:	83 c4 08             	add    $0x8,%esp
  102ac1:	5b                   	pop    %ebx
  102ac2:	c3                   	ret    
  102ac3:	8d 74 26 00          	lea    0x0(%esi,%eiz,1),%esi
  102ac7:	90                   	nop
        KERN_WARN("CertiKOS cannot manipulate more than %d IOAPICs.\n", MAX_IOAPIC);
  102ac8:	8d 83 94 86 ff ff    	lea    -0x796c(%ebx),%eax
  102ace:	6a 10                	push   $0x10
  102ad0:	50                   	push   %eax
  102ad1:	8d 83 0d 87 ff ff    	lea    -0x78f3(%ebx),%eax
  102ad7:	6a 1f                	push   $0x1f
  102ad9:	50                   	push   %eax
  102ada:	e8 21 16 00 00       	call   104100 <debug_warn>
        return;
  102adf:	83 c4 10             	add    $0x10,%esp
}
  102ae2:	83 c4 08             	add    $0x8,%esp
  102ae5:	5b                   	pop    %ebx
  102ae6:	c3                   	ret    
  102ae7:	8d b4 26 00 00 00 00 	lea    0x0(%esi,%eiz,1),%esi
  102aee:	66 90                	xchg   %ax,%ax

00102af0 <ioapic_init>:

void ioapic_init(void)
{
  102af0:	55                   	push   %ebp
  102af1:	57                   	push   %edi
  102af2:	56                   	push   %esi
  102af3:	53                   	push   %ebx
  102af4:	e8 90 d8 ff ff       	call   100389 <__x86.get_pc_thunk.bx>
  102af9:	81 c3 07 e5 00 00    	add    $0xe507,%ebx
  102aff:	83 ec 1c             	sub    $0x1c,%esp
    int i;
    for (i = 0; i < ioapic_num; i++) {
  102b02:	8b 83 a0 88 02 00    	mov    0x288a0(%ebx),%eax
  102b08:	89 1c 24             	mov    %ebx,(%esp)
  102b0b:	85 c0                	test   %eax,%eax
  102b0d:	0f 8e e7 00 00 00    	jle    102bfa <ioapic_init+0x10a>
  102b13:	89 d8                	mov    %ebx,%eax
  102b15:	8d 9b 00 89 02 00    	lea    0x28900(%ebx),%ebx
  102b1b:	31 ff                	xor    %edi,%edi
  102b1d:	89 5c 24 04          	mov    %ebx,0x4(%esp)
        volatile ioapic_t *ioapic = ioapics[i];
        KERN_ASSERT(ioapic != NULL);
  102b21:	8d 98 1f 87 ff ff    	lea    -0x78e1(%eax),%ebx
  102b27:	8d 80 bf 82 ff ff    	lea    -0x7d41(%eax),%eax
  102b2d:	89 5c 24 08          	mov    %ebx,0x8(%esp)
  102b31:	89 44 24 0c          	mov    %eax,0xc(%esp)
  102b35:	8d 76 00             	lea    0x0(%esi),%esi
        volatile ioapic_t *ioapic = ioapics[i];
  102b38:	8b 04 24             	mov    (%esp),%eax
  102b3b:	8b b4 b8 20 89 02 00 	mov    0x28920(%eax,%edi,4),%esi
        KERN_ASSERT(ioapic != NULL);
  102b42:	85 f6                	test   %esi,%esi
  102b44:	0f 84 be 00 00 00    	je     102c08 <ioapic_init+0x118>
    base->reg = reg;
  102b4a:	c7 06 00 00 00 00    	movl   $0x0,(%esi)
    return base->data;
  102b50:	8b 46 10             	mov    0x10(%esi),%eax

        lapicid_t id = ioapic_read(ioapic, IOAPIC_ID) >> 24;
        if (id == 0) {
  102b53:	c1 e8 18             	shr    $0x18,%eax
  102b56:	75 18                	jne    102b70 <ioapic_init+0x80>
            // I/O APIC ID not initialized yet - have to do it ourselves.
            ioapic_write(ioapic, IOAPIC_ID, ioapicid[i] << 24);
  102b58:	8b 5c 24 04          	mov    0x4(%esp),%ebx
  102b5c:	0f b6 04 3b          	movzbl (%ebx,%edi,1),%eax
    base->reg = reg;
  102b60:	c7 06 00 00 00 00    	movl   $0x0,(%esi)
            ioapic_write(ioapic, IOAPIC_ID, ioapicid[i] << 24);
  102b66:	c1 e0 18             	shl    $0x18,%eax
    base->data = data;
  102b69:	89 46 10             	mov    %eax,0x10(%esi)
            id = ioapicid[i];
  102b6c:	0f b6 04 3b          	movzbl (%ebx,%edi,1),%eax
        }

        if (id != ioapicid[i])
  102b70:	8b 5c 24 04          	mov    0x4(%esp),%ebx
  102b74:	0f b6 14 3b          	movzbl (%ebx,%edi,1),%edx
  102b78:	38 c2                	cmp    %al,%dl
  102b7a:	74 28                	je     102ba4 <ioapic_init+0xb4>
            KERN_WARN("ioapic_init: id %d != ioapicid %d\n", id, ioapicid[i]);
  102b7c:	0f b6 14 3b          	movzbl (%ebx,%edi,1),%edx
  102b80:	83 ec 0c             	sub    $0xc,%esp
  102b83:	0f b6 c0             	movzbl %al,%eax
  102b86:	52                   	push   %edx
  102b87:	50                   	push   %eax
  102b88:	8b 5c 24 14          	mov    0x14(%esp),%ebx
  102b8c:	8d 83 c8 86 ff ff    	lea    -0x7938(%ebx),%eax
  102b92:	50                   	push   %eax
  102b93:	8d 83 0d 87 ff ff    	lea    -0x78f3(%ebx),%eax
  102b99:	6a 39                	push   $0x39
  102b9b:	50                   	push   %eax
  102b9c:	e8 5f 15 00 00       	call   104100 <debug_warn>
  102ba1:	83 c4 20             	add    $0x20,%esp
    base->reg = reg;
  102ba4:	c7 06 01 00 00 00    	movl   $0x1,(%esi)
    return base->data;
  102baa:	8b 6e 10             	mov    0x10(%esi),%ebp

        int maxintr = (ioapic_read(ioapic, IOAPIC_VER) >> 16) & 0xFF;
  102bad:	c1 ed 10             	shr    $0x10,%ebp
  102bb0:	89 e8                	mov    %ebp,%eax
  102bb2:	0f b6 e8             	movzbl %al,%ebp
  102bb5:	b8 20 00 00 00       	mov    $0x20,%eax
  102bba:	83 c5 21             	add    $0x21,%ebp
  102bbd:	8d 76 00             	lea    0x0(%esi),%esi

        // Mark all interrupts edge-triggered, active high, disabled,
        // and not routed to any CPUs.
        int j;
        for (j = 0; j <= maxintr; j++) {
            ioapic_write(ioapic, IOAPIC_TABLE + 2 * j,
  102bc0:	8d 14 00             	lea    (%eax,%eax,1),%edx
                         IOAPIC_INT_DISABLED | (T_IRQ0 + j));
  102bc3:	89 c1                	mov    %eax,%ecx
        for (j = 0; j <= maxintr; j++) {
  102bc5:	83 c0 01             	add    $0x1,%eax
  102bc8:	8d 5a d0             	lea    -0x30(%edx),%ebx
                         IOAPIC_INT_DISABLED | (T_IRQ0 + j));
  102bcb:	81 c9 00 00 01 00    	or     $0x10000,%ecx
    base->reg = reg;
  102bd1:	83 ea 2f             	sub    $0x2f,%edx
  102bd4:	89 1e                	mov    %ebx,(%esi)
    base->data = data;
  102bd6:	89 4e 10             	mov    %ecx,0x10(%esi)
    base->reg = reg;
  102bd9:	89 16                	mov    %edx,(%esi)
    base->data = data;
  102bdb:	c7 46 10 00 00 00 00 	movl   $0x0,0x10(%esi)
        for (j = 0; j <= maxintr; j++) {
  102be2:	39 c5                	cmp    %eax,%ebp
  102be4:	75 da                	jne    102bc0 <ioapic_init+0xd0>
    for (i = 0; i < ioapic_num; i++) {
  102be6:	8b 04 24             	mov    (%esp),%eax
  102be9:	83 c7 01             	add    $0x1,%edi
  102bec:	8b 80 a0 88 02 00    	mov    0x288a0(%eax),%eax
  102bf2:	39 f8                	cmp    %edi,%eax
  102bf4:	0f 8f 3e ff ff ff    	jg     102b38 <ioapic_init+0x48>
            ioapic_write(ioapic, IOAPIC_TABLE + 2 * j + 1, 0);
        }
    }
}
  102bfa:	83 c4 1c             	add    $0x1c,%esp
  102bfd:	5b                   	pop    %ebx
  102bfe:	5e                   	pop    %esi
  102bff:	5f                   	pop    %edi
  102c00:	5d                   	pop    %ebp
  102c01:	c3                   	ret    
  102c02:	8d b6 00 00 00 00    	lea    0x0(%esi),%esi
        KERN_ASSERT(ioapic != NULL);
  102c08:	ff 74 24 08          	push   0x8(%esp)
  102c0c:	ff 74 24 10          	push   0x10(%esp)
  102c10:	6a 2f                	push   $0x2f
  102c12:	8b 5c 24 0c          	mov    0xc(%esp),%ebx
  102c16:	8d 83 0d 87 ff ff    	lea    -0x78f3(%ebx),%eax
  102c1c:	50                   	push   %eax
  102c1d:	e8 0e 14 00 00       	call   104030 <debug_panic>
  102c22:	83 c4 10             	add    $0x10,%esp
  102c25:	e9 20 ff ff ff       	jmp    102b4a <ioapic_init+0x5a>
  102c2a:	8d b6 00 00 00 00    	lea    0x0(%esi),%esi

00102c30 <ioapic_enable>:

void ioapic_enable(uint8_t irq, lapicid_t apicid, bool trigger_mode, bool polarity)
{
  102c30:	55                   	push   %ebp
  102c31:	57                   	push   %edi
  102c32:	56                   	push   %esi
  102c33:	53                   	push   %ebx
  102c34:	e8 50 d7 ff ff       	call   100389 <__x86.get_pc_thunk.bx>
  102c39:	81 c3 c7 e3 00 00    	add    $0xe3c7,%ebx
  102c3f:	83 ec 2c             	sub    $0x2c,%esp
  102c42:	8b 44 24 44          	mov    0x44(%esp),%eax
  102c46:	8b 4c 24 40          	mov    0x40(%esp),%ecx
  102c4a:	89 44 24 10          	mov    %eax,0x10(%esp)
  102c4e:	8b 44 24 48          	mov    0x48(%esp),%eax
  102c52:	89 4c 24 1c          	mov    %ecx,0x1c(%esp)
  102c56:	89 44 24 14          	mov    %eax,0x14(%esp)
  102c5a:	8b 44 24 4c          	mov    0x4c(%esp),%eax
  102c5e:	89 44 24 18          	mov    %eax,0x18(%esp)
    // Mark interrupt edge-triggered, active high,
    // enabled, and routed to the given APIC ID,
    int i;
    for (i = 0; i < ioapic_num; i++) {
  102c62:	8b 83 a0 88 02 00    	mov    0x288a0(%ebx),%eax
  102c68:	85 c0                	test   %eax,%eax
  102c6a:	0f 8e d8 00 00 00    	jle    102d48 <ioapic_enable+0x118>
            break;
        }
    }

    if (i == ioapic_num)
        KERN_PANIC("Cannot enable IRQ %d on IOAPIC.\n", irq);
  102c70:	0f b6 c9             	movzbl %cl,%ecx
    for (i = 0; i < ioapic_num; i++) {
  102c73:	31 c0                	xor    %eax,%eax
  102c75:	8d b3 c0 88 02 00    	lea    0x288c0(%ebx),%esi
  102c7b:	89 4c 24 0c          	mov    %ecx,0xc(%esp)
  102c7f:	90                   	nop
        ioapic_t *ioapic = ioapics[i];
  102c80:	8b 94 83 20 89 02 00 	mov    0x28920(%ebx,%eax,4),%edx
    base->reg = reg;
  102c87:	c7 02 01 00 00 00    	movl   $0x1,(%edx)
    return base->data;
  102c8d:	8b 7a 10             	mov    0x10(%edx),%edi
        if (irq >= gsi[i] && irq <= gsi[i] + maxintr) {
  102c90:	8b 2c 86             	mov    (%esi,%eax,4),%ebp
  102c93:	3b 6c 24 0c          	cmp    0xc(%esp),%ebp
  102c97:	7f 13                	jg     102cac <ioapic_enable+0x7c>
        int maxintr = (ioapic_read(ioapic, IOAPIC_VER) >> 16) & 0xFF;
  102c99:	c1 ef 10             	shr    $0x10,%edi
        if (irq >= gsi[i] && irq <= gsi[i] + maxintr) {
  102c9c:	8b 2c 86             	mov    (%esi,%eax,4),%ebp
        int maxintr = (ioapic_read(ioapic, IOAPIC_VER) >> 16) & 0xFF;
  102c9f:	89 f9                	mov    %edi,%ecx
  102ca1:	0f b6 f9             	movzbl %cl,%edi
        if (irq >= gsi[i] && irq <= gsi[i] + maxintr) {
  102ca4:	01 ef                	add    %ebp,%edi
  102ca6:	3b 7c 24 0c          	cmp    0xc(%esp),%edi
  102caa:	7d 24                	jge    102cd0 <ioapic_enable+0xa0>
    for (i = 0; i < ioapic_num; i++) {
  102cac:	8b 93 a0 88 02 00    	mov    0x288a0(%ebx),%edx
  102cb2:	83 c0 01             	add    $0x1,%eax
  102cb5:	39 c2                	cmp    %eax,%edx
  102cb7:	7f c7                	jg     102c80 <ioapic_enable+0x50>
    if (i == ioapic_num)
  102cb9:	8b 93 a0 88 02 00    	mov    0x288a0(%ebx),%edx
  102cbf:	39 c2                	cmp    %eax,%edx
  102cc1:	74 5f                	je     102d22 <ioapic_enable+0xf2>
}
  102cc3:	83 c4 2c             	add    $0x2c,%esp
  102cc6:	5b                   	pop    %ebx
  102cc7:	5e                   	pop    %esi
  102cc8:	5f                   	pop    %edi
  102cc9:	5d                   	pop    %ebp
  102cca:	c3                   	ret    
  102ccb:	8d 74 26 00          	lea    0x0(%esi,%eiz,1),%esi
  102ccf:	90                   	nop
                         ((trigger_mode << 15) | (polarity << 13) | (T_IRQ0 + irq)));
  102cd0:	0f b6 6c 24 14       	movzbl 0x14(%esp),%ebp
  102cd5:	0f b6 7c 24 18       	movzbl 0x18(%esp),%edi
  102cda:	8b 4c 24 0c          	mov    0xc(%esp),%ecx
  102cde:	c1 e5 0f             	shl    $0xf,%ebp
  102ce1:	c1 e7 0d             	shl    $0xd,%edi
  102ce4:	09 ef                	or     %ebp,%edi
  102ce6:	8d 69 20             	lea    0x20(%ecx),%ebp
  102ce9:	09 fd                	or     %edi,%ebp
                         IOAPIC_TABLE + 2 * (irq - gsi[i]),
  102ceb:	8b 3c 86             	mov    (%esi,%eax,4),%edi
                         ((trigger_mode << 15) | (polarity << 13) | (T_IRQ0 + irq)));
  102cee:	89 6c 24 0c          	mov    %ebp,0xc(%esp)
                         IOAPIC_TABLE + 2 * (irq - gsi[i]),
  102cf2:	89 cd                	mov    %ecx,%ebp
  102cf4:	29 fd                	sub    %edi,%ebp
            ioapic_write(ioapic,
  102cf6:	8d 7c 2d 10          	lea    0x10(%ebp,%ebp,1),%edi
    base->reg = reg;
  102cfa:	89 3a                	mov    %edi,(%edx)
    base->data = data;
  102cfc:	8b 7c 24 0c          	mov    0xc(%esp),%edi
  102d00:	89 7a 10             	mov    %edi,0x10(%edx)
                         IOAPIC_TABLE + 2 * (irq - gsi[i]) + 1,
  102d03:	8b 34 86             	mov    (%esi,%eax,4),%esi
                         apicid << 24);
  102d06:	8b 7c 24 10          	mov    0x10(%esp),%edi
                         IOAPIC_TABLE + 2 * (irq - gsi[i]) + 1,
  102d0a:	29 f1                	sub    %esi,%ecx
                         apicid << 24);
  102d0c:	c1 e7 18             	shl    $0x18,%edi
            ioapic_write(ioapic,
  102d0f:	8d 4c 09 11          	lea    0x11(%ecx,%ecx,1),%ecx
    base->reg = reg;
  102d13:	89 0a                	mov    %ecx,(%edx)
    base->data = data;
  102d15:	89 7a 10             	mov    %edi,0x10(%edx)
    if (i == ioapic_num)
  102d18:	8b 93 a0 88 02 00    	mov    0x288a0(%ebx),%edx
  102d1e:	39 c2                	cmp    %eax,%edx
  102d20:	75 a1                	jne    102cc3 <ioapic_enable+0x93>
        KERN_PANIC("Cannot enable IRQ %d on IOAPIC.\n", irq);
  102d22:	0f b6 44 24 1c       	movzbl 0x1c(%esp),%eax
  102d27:	50                   	push   %eax
  102d28:	8d 83 ec 86 ff ff    	lea    -0x7914(%ebx),%eax
  102d2e:	50                   	push   %eax
  102d2f:	8d 83 0d 87 ff ff    	lea    -0x78f3(%ebx),%eax
  102d35:	6a 5d                	push   $0x5d
  102d37:	50                   	push   %eax
  102d38:	e8 f3 12 00 00       	call   104030 <debug_panic>
  102d3d:	83 c4 10             	add    $0x10,%esp
}
  102d40:	83 c4 2c             	add    $0x2c,%esp
  102d43:	5b                   	pop    %ebx
  102d44:	5e                   	pop    %esi
  102d45:	5f                   	pop    %edi
  102d46:	5d                   	pop    %ebp
  102d47:	c3                   	ret    
    for (i = 0; i < ioapic_num; i++) {
  102d48:	31 c0                	xor    %eax,%eax
  102d4a:	e9 6a ff ff ff       	jmp    102cb9 <ioapic_enable+0x89>
  102d4f:	90                   	nop

00102d50 <ioapic_number>:

int ioapic_number(void)
{
    return ioapic_num;
  102d50:	e8 2c d6 ff ff       	call   100381 <__x86.get_pc_thunk.ax>
  102d55:	05 ab e2 00 00       	add    $0xe2ab,%eax
  102d5a:	8b 80 a0 88 02 00    	mov    0x288a0(%eax),%eax
}
  102d60:	c3                   	ret    
  102d61:	8d b4 26 00 00 00 00 	lea    0x0(%esi,%eiz,1),%esi
  102d68:	8d b4 26 00 00 00 00 	lea    0x0(%esi,%eiz,1),%esi
  102d6f:	90                   	nop

00102d70 <ioapic_get>:

ioapic_t *ioapic_get(uint32_t idx)
{
    if (idx >= ioapic_num)
  102d70:	e8 0c d6 ff ff       	call   100381 <__x86.get_pc_thunk.ax>
  102d75:	05 8b e2 00 00       	add    $0xe28b,%eax
{
  102d7a:	8b 54 24 04          	mov    0x4(%esp),%edx
    if (idx >= ioapic_num)
  102d7e:	8b 88 a0 88 02 00    	mov    0x288a0(%eax),%ecx
  102d84:	39 d1                	cmp    %edx,%ecx
  102d86:	76 08                	jbe    102d90 <ioapic_get+0x20>
        return NULL;
    return ioapics[idx];
  102d88:	8b 84 90 20 89 02 00 	mov    0x28920(%eax,%edx,4),%eax
  102d8f:	c3                   	ret    
        return NULL;
  102d90:	31 c0                	xor    %eax,%eax
}
  102d92:	c3                   	ret    
  102d93:	66 90                	xchg   %ax,%ax
  102d95:	66 90                	xchg   %ax,%ax
  102d97:	66 90                	xchg   %ax,%ax
  102d99:	66 90                	xchg   %ax,%ax
  102d9b:	66 90                	xchg   %ax,%ax
  102d9d:	66 90                	xchg   %ax,%ax
  102d9f:	90                   	nop

00102da0 <mpsearch1>:
    return sum;
}

/* Look for an MP structure in the len bytes at addr. */
static struct mp *mpsearch1(uint8_t *addr, int len)
{
  102da0:	55                   	push   %ebp
  102da1:	57                   	push   %edi
  102da2:	56                   	push   %esi
  102da3:	89 c6                	mov    %eax,%esi
    uint8_t *e, *p;

    e = addr + len;
  102da5:	01 d0                	add    %edx,%eax
{
  102da7:	53                   	push   %ebx
  102da8:	e8 dc d5 ff ff       	call   100389 <__x86.get_pc_thunk.bx>
  102dad:	81 c3 53 e2 00 00    	add    $0xe253,%ebx
  102db3:	83 ec 1c             	sub    $0x1c,%esp
    e = addr + len;
  102db6:	89 44 24 0c          	mov    %eax,0xc(%esp)
    for (p = addr; p < e; p += sizeof(struct mp))
  102dba:	39 c6                	cmp    %eax,%esi
  102dbc:	73 5a                	jae    102e18 <mpsearch1+0x78>
  102dbe:	8d bb 2e 87 ff ff    	lea    -0x78d2(%ebx),%edi
  102dc4:	eb 12                	jmp    102dd8 <mpsearch1+0x38>
  102dc6:	8d b4 26 00 00 00 00 	lea    0x0(%esi,%eiz,1),%esi
  102dcd:	8d 76 00             	lea    0x0(%esi),%esi
  102dd0:	89 ee                	mov    %ebp,%esi
  102dd2:	39 6c 24 0c          	cmp    %ebp,0xc(%esp)
  102dd6:	76 40                	jbe    102e18 <mpsearch1+0x78>
        if (memcmp(p, "_MP_", 4) == 0 && sum(p, sizeof(struct mp)) == 0)
  102dd8:	83 ec 04             	sub    $0x4,%esp
  102ddb:	8d 6e 10             	lea    0x10(%esi),%ebp
  102dde:	6a 04                	push   $0x4
  102de0:	57                   	push   %edi
  102de1:	56                   	push   %esi
  102de2:	e8 79 11 00 00       	call   103f60 <memcmp>
  102de7:	83 c4 10             	add    $0x10,%esp
  102dea:	89 c2                	mov    %eax,%edx
  102dec:	85 c0                	test   %eax,%eax
  102dee:	75 e0                	jne    102dd0 <mpsearch1+0x30>
  102df0:	89 f0                	mov    %esi,%eax
  102df2:	8d b6 00 00 00 00    	lea    0x0(%esi),%esi
        sum += addr[i];
  102df8:	0f b6 08             	movzbl (%eax),%ecx
    for (i = 0; i < len; i++)
  102dfb:	83 c0 01             	add    $0x1,%eax
        sum += addr[i];
  102dfe:	01 ca                	add    %ecx,%edx
    for (i = 0; i < len; i++)
  102e00:	39 e8                	cmp    %ebp,%eax
  102e02:	75 f4                	jne    102df8 <mpsearch1+0x58>
        if (memcmp(p, "_MP_", 4) == 0 && sum(p, sizeof(struct mp)) == 0)
  102e04:	84 d2                	test   %dl,%dl
  102e06:	75 c8                	jne    102dd0 <mpsearch1+0x30>
            return (struct mp *) p;
    return 0;
}
  102e08:	83 c4 1c             	add    $0x1c,%esp
  102e0b:	89 f0                	mov    %esi,%eax
  102e0d:	5b                   	pop    %ebx
  102e0e:	5e                   	pop    %esi
  102e0f:	5f                   	pop    %edi
  102e10:	5d                   	pop    %ebp
  102e11:	c3                   	ret    
  102e12:	8d b6 00 00 00 00    	lea    0x0(%esi),%esi
  102e18:	83 c4 1c             	add    $0x1c,%esp
    return 0;
  102e1b:	31 c0                	xor    %eax,%eax
}
  102e1d:	5b                   	pop    %ebx
  102e1e:	5e                   	pop    %esi
  102e1f:	5f                   	pop    %edi
  102e20:	5d                   	pop    %ebp
  102e21:	c3                   	ret    
  102e22:	8d b4 26 00 00 00 00 	lea    0x0(%esi,%eiz,1),%esi
  102e29:	8d b4 26 00 00 00 00 	lea    0x0(%esi,%eiz,1),%esi

00102e30 <pcpu_mp_init>:

/*
 * Multiple processors initialization method using ACPI
 */
bool pcpu_mp_init(void)
{
  102e30:	55                   	push   %ebp
  102e31:	57                   	push   %edi
  102e32:	56                   	push   %esi
  102e33:	53                   	push   %ebx
  102e34:	e8 50 d5 ff ff       	call   100389 <__x86.get_pc_thunk.bx>
  102e39:	81 c3 c7 e1 00 00    	add    $0xe1c7,%ebx
  102e3f:	83 ec 2c             	sub    $0x2c,%esp
    acpi_xsdt_t *xsdt;
    acpi_madt_t *madt;
    uint32_t ap_idx = 1;
    bool found_bsp = FALSE;

    if (mp_inited == TRUE)
  102e42:	80 bb 61 89 02 00 01 	cmpb   $0x1,0x28961(%ebx)
  102e49:	0f 84 8a 01 00 00    	je     102fd9 <pcpu_mp_init+0x1a9>
        return TRUE;

    KERN_INFO("\n");
  102e4f:	83 ec 0c             	sub    $0xc,%esp
  102e52:	8d 83 cd 96 ff ff    	lea    -0x6933(%ebx),%eax
  102e58:	50                   	push   %eax
  102e59:	e8 62 11 00 00       	call   103fc0 <debug_info>

    if ((rsdp = acpi_probe_rsdp()) == NULL) {
  102e5e:	e8 ed f3 ff ff       	call   102250 <acpi_probe_rsdp>
  102e63:	83 c4 10             	add    $0x10,%esp
  102e66:	89 c6                	mov    %eax,%esi
  102e68:	85 c0                	test   %eax,%eax
  102e6a:	0f 84 90 02 00 00    	je     103100 <pcpu_mp_init+0x2d0>
        KERN_DEBUG("Not found RSDP.\n");
        goto fallback;
    }

    xsdt = NULL;
    if ((xsdt = acpi_probe_xsdt(rsdp)) == NULL &&
  102e70:	83 ec 0c             	sub    $0xc,%esp
  102e73:	50                   	push   %eax
  102e74:	e8 c7 f5 ff ff       	call   102440 <acpi_probe_xsdt>
  102e79:	83 c4 10             	add    $0x10,%esp
  102e7c:	85 c0                	test   %eax,%eax
  102e7e:	0f 84 1c 02 00 00    	je     1030a0 <pcpu_mp_init+0x270>
        goto fallback;
    }

    if ((madt =
         (xsdt != NULL) ?
         (acpi_madt_t *) acpi_probe_xsdt_ent(xsdt, ACPI_MADT_SIG) :
  102e84:	83 ec 08             	sub    $0x8,%esp
  102e87:	68 41 50 49 43       	push   $0x43495041
  102e8c:	50                   	push   %eax
  102e8d:	e8 3e f6 ff ff       	call   1024d0 <acpi_probe_xsdt_ent>
  102e92:	83 c4 10             	add    $0x10,%esp
  102e95:	89 c7                	mov    %eax,%edi
    if ((madt =
  102e97:	85 ff                	test   %edi,%edi
  102e99:	0f 84 59 04 00 00    	je     1032f8 <pcpu_mp_init+0x4c8>
        KERN_DEBUG("Not found MADT.\n");
        goto fallback;
    }

    ismp = TRUE;
    lapic_register(madt->lapic_addr);
  102e9f:	83 ec 0c             	sub    $0xc,%esp
  102ea2:	ff 77 24             	push   0x24(%edi)
    ncpu = 0;

    p = (uint8_t *) madt->ent;
  102ea5:	8d 6f 2c             	lea    0x2c(%edi),%ebp
    ismp = TRUE;
  102ea8:	c6 83 60 89 02 00 01 	movb   $0x1,0x28960(%ebx)
    lapic_register(madt->lapic_addr);
  102eaf:	e8 bc f6 ff ff       	call   102570 <lapic_register>
    e = (uint8_t *) madt + madt->length;
  102eb4:	8b 77 04             	mov    0x4(%edi),%esi

    while (p < e) {
  102eb7:	83 c4 10             	add    $0x10,%esp
    ncpu = 0;
  102eba:	c7 83 64 89 02 00 00 	movl   $0x0,0x28964(%ebx)
  102ec1:	00 00 00 
    e = (uint8_t *) madt + madt->length;
  102ec4:	01 fe                	add    %edi,%esi
    while (p < e) {
  102ec6:	39 f5                	cmp    %esi,%ebp
  102ec8:	0f 83 99 00 00 00    	jae    102f67 <pcpu_mp_init+0x137>

            if (!(lapic_ent->flags & ACPI_APIC_ENABLED)) {
                break;
            }

            KERN_INFO("\tCPU%d: APIC id = %x, ", ncpu, lapic_ent->lapic_id);
  102ece:	8d 83 68 87 ff ff    	lea    -0x7898(%ebx),%eax
    bool found_bsp = FALSE;
  102ed4:	31 c9                	xor    %ecx,%ecx
            if (!found_bsp) {
                found_bsp = TRUE;
                KERN_INFO("BSP\n");
                pcpu_mp_init_cpu(0, lapic_ent->lapic_id, TRUE);
            } else {
                KERN_INFO("AP\n");
  102ed6:	89 7c 24 14          	mov    %edi,0x14(%esp)
  102eda:	89 ef                	mov    %ebp,%edi
            KERN_INFO("\tCPU%d: APIC id = %x, ", ncpu, lapic_ent->lapic_id);
  102edc:	89 44 24 10          	mov    %eax,0x10(%esp)
                KERN_INFO("AP\n");
  102ee0:	8d 83 84 87 ff ff    	lea    -0x787c(%ebx),%eax
  102ee6:	89 cd                	mov    %ecx,%ebp
    uint32_t ap_idx = 1;
  102ee8:	c7 44 24 0c 01 00 00 	movl   $0x1,0xc(%esp)
  102eef:	00 
                KERN_INFO("AP\n");
  102ef0:	89 44 24 18          	mov    %eax,0x18(%esp)
  102ef4:	eb 27                	jmp    102f1d <pcpu_mp_init+0xed>
  102ef6:	8d b4 26 00 00 00 00 	lea    0x0(%esi,%eiz,1),%esi
  102efd:	8d 76 00             	lea    0x0(%esi),%esi

            ioapic_register(ioapic_ent->ioapic_addr, ioapic_ent->ioapic_id,
                            ioapic_ent->gsi);
            break;
        default:
            KERN_INFO("\tUnhandled ACPI entry (type=%x)\n", hdr->type);
  102f00:	83 ec 08             	sub    $0x8,%esp
  102f03:	50                   	push   %eax
  102f04:	8d 83 38 88 ff ff    	lea    -0x77c8(%ebx),%eax
  102f0a:	50                   	push   %eax
  102f0b:	e8 b0 10 00 00       	call   103fc0 <debug_info>
            break;
  102f10:	83 c4 10             	add    $0x10,%esp
        }

        p += hdr->length;
  102f13:	0f b6 47 01          	movzbl 0x1(%edi),%eax
  102f17:	01 c7                	add    %eax,%edi
    while (p < e) {
  102f19:	39 fe                	cmp    %edi,%esi
  102f1b:	76 46                	jbe    102f63 <pcpu_mp_init+0x133>
        switch (hdr->type) {
  102f1d:	0f b6 07             	movzbl (%edi),%eax
  102f20:	84 c0                	test   %al,%al
  102f22:	0f 84 c8 00 00 00    	je     102ff0 <pcpu_mp_init+0x1c0>
  102f28:	3c 01                	cmp    $0x1,%al
  102f2a:	75 d4                	jne    102f00 <pcpu_mp_init+0xd0>
            KERN_INFO("\tIOAPIC: APIC id = %x, base = %x\n",
  102f2c:	83 ec 04             	sub    $0x4,%esp
  102f2f:	ff 77 04             	push   0x4(%edi)
  102f32:	0f b6 47 02          	movzbl 0x2(%edi),%eax
  102f36:	50                   	push   %eax
  102f37:	8d 83 14 88 ff ff    	lea    -0x77ec(%ebx),%eax
  102f3d:	50                   	push   %eax
  102f3e:	e8 7d 10 00 00       	call   103fc0 <debug_info>
            ioapic_register(ioapic_ent->ioapic_addr, ioapic_ent->ioapic_id,
  102f43:	83 c4 0c             	add    $0xc,%esp
  102f46:	ff 77 08             	push   0x8(%edi)
  102f49:	0f b6 47 02          	movzbl 0x2(%edi),%eax
  102f4d:	50                   	push   %eax
  102f4e:	ff 77 04             	push   0x4(%edi)
  102f51:	e8 0a fb ff ff       	call   102a60 <ioapic_register>
        p += hdr->length;
  102f56:	0f b6 47 01          	movzbl 0x1(%edi),%eax
            break;
  102f5a:	83 c4 10             	add    $0x10,%esp
        p += hdr->length;
  102f5d:	01 c7                	add    %eax,%edi
    while (p < e) {
  102f5f:	39 fe                	cmp    %edi,%esi
  102f61:	77 ba                	ja     102f1d <pcpu_mp_init+0xed>
  102f63:	8b 7c 24 14          	mov    0x14(%esp),%edi
    /*
     * Force NMI and 8259 signals to APIC when PIC mode
     * is not implemented.
     *
     */
    if ((madt->flags & APIC_MADT_PCAT_COMPAT) == 0) {
  102f67:	f6 47 28 01          	testb  $0x1,0x28(%edi)
  102f6b:	0f 84 5f 01 00 00    	je     1030d0 <pcpu_mp_init+0x2a0>
    }

    /*
     * Copy AP boot code to 0x8000.
     */
    memmove((uint8_t *) 0x8000,
  102f71:	83 ec 04             	sub    $0x4,%esp
  102f74:	ff b3 e8 ff ff ff    	push   -0x18(%ebx)
  102f7a:	ff b3 fc ff ff ff    	push   -0x4(%ebx)
  102f80:	68 00 80 00 00       	push   $0x8000
  102f85:	e8 16 0e 00 00       	call   103da0 <memmove>
            _binary___obj_kern_init_boot_ap_start,
            (size_t) _binary___obj_kern_init_boot_ap_size);

    mp_inited = TRUE;
    return TRUE;
  102f8a:	83 c4 10             	add    $0x10,%esp
  102f8d:	b8 01 00 00 00       	mov    $0x1,%eax
    mp_inited = TRUE;
  102f92:	c6 83 61 89 02 00 01 	movb   $0x1,0x28961(%ebx)
        ismp = 0;
        ncpu = 1;
        return FALSE;
    } else
        return TRUE;
}
  102f99:	83 c4 2c             	add    $0x2c,%esp
  102f9c:	5b                   	pop    %ebx
  102f9d:	5e                   	pop    %esi
  102f9e:	5f                   	pop    %edi
  102f9f:	5d                   	pop    %ebp
  102fa0:	c3                   	ret    
  102fa1:	8d b4 26 00 00 00 00 	lea    0x0(%esi,%eiz,1),%esi
  102fa8:	8b 7c 24 18          	mov    0x18(%esp),%edi
    if (mp->imcrp) {
  102fac:	80 7f 0c 00          	cmpb   $0x0,0xc(%edi)
  102fb0:	0f 85 51 04 00 00    	jne    103407 <pcpu_mp_init+0x5d7>
    memcpy((uint8_t *) 0x8000,
  102fb6:	83 ec 04             	sub    $0x4,%esp
  102fb9:	ff b3 e8 ff ff ff    	push   -0x18(%ebx)
  102fbf:	ff b3 fc ff ff ff    	push   -0x4(%ebx)
  102fc5:	68 00 80 00 00       	push   $0x8000
  102fca:	e8 41 0e 00 00       	call   103e10 <memcpy>
    mp_inited = TRUE;
  102fcf:	c6 83 61 89 02 00 01 	movb   $0x1,0x28961(%ebx)
  102fd6:	83 c4 10             	add    $0x10,%esp
}
  102fd9:	83 c4 2c             	add    $0x2c,%esp
        return TRUE;
  102fdc:	b8 01 00 00 00       	mov    $0x1,%eax
}
  102fe1:	5b                   	pop    %ebx
  102fe2:	5e                   	pop    %esi
  102fe3:	5f                   	pop    %edi
  102fe4:	5d                   	pop    %ebp
  102fe5:	c3                   	ret    
  102fe6:	8d b4 26 00 00 00 00 	lea    0x0(%esi,%eiz,1),%esi
  102fed:	8d 76 00             	lea    0x0(%esi),%esi
            if (!(lapic_ent->flags & ACPI_APIC_ENABLED)) {
  102ff0:	f6 47 04 01          	testb  $0x1,0x4(%edi)
  102ff4:	0f 84 19 ff ff ff    	je     102f13 <pcpu_mp_init+0xe3>
            KERN_INFO("\tCPU%d: APIC id = %x, ", ncpu, lapic_ent->lapic_id);
  102ffa:	0f b6 47 03          	movzbl 0x3(%edi),%eax
  102ffe:	83 ec 04             	sub    $0x4,%esp
  103001:	50                   	push   %eax
  103002:	ff b3 64 89 02 00    	push   0x28964(%ebx)
  103008:	ff 74 24 1c          	push   0x1c(%esp)
  10300c:	e8 af 0f 00 00       	call   103fc0 <debug_info>
            if (!found_bsp) {
  103011:	89 e8                	mov    %ebp,%eax
  103013:	83 c4 10             	add    $0x10,%esp
  103016:	84 c0                	test   %al,%al
  103018:	74 4e                	je     103068 <pcpu_mp_init+0x238>
                KERN_INFO("AP\n");
  10301a:	83 ec 0c             	sub    $0xc,%esp
  10301d:	ff 74 24 24          	push   0x24(%esp)
  103021:	e8 9a 0f 00 00       	call   103fc0 <debug_info>
    if (idx >= NUM_CPUS)
  103026:	8b 44 24 1c          	mov    0x1c(%esp),%eax
  10302a:	83 c4 10             	add    $0x10,%esp
  10302d:	83 f8 07             	cmp    $0x7,%eax
  103030:	77 1b                	ja     10304d <pcpu_mp_init+0x21d>
    struct pcpuinfo *info = (struct pcpuinfo *) get_pcpu_arch_info_pointer(idx);
  103032:	83 ec 0c             	sub    $0xc,%esp
                pcpu_mp_init_cpu(ap_idx, lapic_ent->lapic_id, FALSE);
  103035:	0f b6 6f 03          	movzbl 0x3(%edi),%ebp
    struct pcpuinfo *info = (struct pcpuinfo *) get_pcpu_arch_info_pointer(idx);
  103039:	50                   	push   %eax
  10303a:	e8 51 2f 00 00       	call   105f90 <get_pcpu_arch_info_pointer>
    info->lapicid = lapic_id;
  10303f:	89 e9                	mov    %ebp,%ecx
    info->bsp = is_bsp;
  103041:	83 c4 10             	add    $0x10,%esp
    info->lapicid = lapic_id;
  103044:	0f b6 c9             	movzbl %cl,%ecx
    info->bsp = is_bsp;
  103047:	c6 40 04 00          	movb   $0x0,0x4(%eax)
    info->lapicid = lapic_id;
  10304b:	89 08                	mov    %ecx,(%eax)
                ap_idx++;
  10304d:	83 44 24 0c 01       	addl   $0x1,0xc(%esp)
            ncpu++;
  103052:	83 83 64 89 02 00 01 	addl   $0x1,0x28964(%ebx)
            break;
  103059:	bd 01 00 00 00       	mov    $0x1,%ebp
  10305e:	e9 b0 fe ff ff       	jmp    102f13 <pcpu_mp_init+0xe3>
  103063:	8d 74 26 00          	lea    0x0(%esi,%eiz,1),%esi
  103067:	90                   	nop
                KERN_INFO("BSP\n");
  103068:	83 ec 0c             	sub    $0xc,%esp
  10306b:	8d 83 7f 87 ff ff    	lea    -0x7881(%ebx),%eax
  103071:	50                   	push   %eax
  103072:	e8 49 0f 00 00       	call   103fc0 <debug_info>
                pcpu_mp_init_cpu(0, lapic_ent->lapic_id, TRUE);
  103077:	0f b6 6f 03          	movzbl 0x3(%edi),%ebp
    struct pcpuinfo *info = (struct pcpuinfo *) get_pcpu_arch_info_pointer(idx);
  10307b:	c7 04 24 00 00 00 00 	movl   $0x0,(%esp)
  103082:	e8 09 2f 00 00       	call   105f90 <get_pcpu_arch_info_pointer>
    info->bsp = is_bsp;
  103087:	83 c4 10             	add    $0x10,%esp
    info->lapicid = lapic_id;
  10308a:	89 e9                	mov    %ebp,%ecx
    info->bsp = is_bsp;
  10308c:	c6 40 04 01          	movb   $0x1,0x4(%eax)
    info->lapicid = lapic_id;
  103090:	0f b6 e9             	movzbl %cl,%ebp
